
obj/net/ns:     file format elf32-i386


Disassembly of section .text:

00800020 <_start>:
// starts us running when we are initially loaded into a new environment.
.text
.globl _start
_start:
	// See if we were started with arguments on the stack
	cmpl $USTACKTOP, %esp
  800020:	81 fc 00 e0 bf ee    	cmp    $0xeebfe000,%esp
	jne args_exist
  800026:	75 04                	jne    80002c <args_exist>

	// If not, push dummy argc/argv arguments.
	// This happens when we are loaded by the kernel,
	// because the kernel does not know about passing arguments.
	pushl $0
  800028:	6a 00                	push   $0x0
	pushl $0
  80002a:	6a 00                	push   $0x0

0080002c <args_exist>:

args_exist:
	call libmain
  80002c:	e8 c2 e5 00 00       	call   80e5f3 <libmain>
1:	jmp 1b
  800031:	eb fe                	jmp    800031 <args_exist+0x5>

00800033 <tcpip_init_done>:
		panic("cannot create timer thread: %s", e2s(r));
}

static void
tcpip_init_done(void *arg)
{
  800033:	55                   	push   %ebp
  800034:	89 e5                	mov    %esp,%ebp
  800036:	83 ec 14             	sub    $0x14,%esp
  800039:	8b 45 08             	mov    0x8(%ebp),%eax
	uint32_t *done = arg;
	*done = 1;
  80003c:	c7 00 01 00 00 00    	movl   $0x1,(%eax)
	thread_wakeup(done);
  800042:	50                   	push   %eax
  800043:	e8 02 a6 00 00       	call   80a64a <thread_wakeup>
}
  800048:	83 c4 10             	add    $0x10,%esp
  80004b:	c9                   	leave  
  80004c:	c3                   	ret    

0080004d <start_timer>:
{
  80004d:	55                   	push   %ebp
  80004e:	89 e5                	mov    %esp,%ebp
  800050:	53                   	push   %ebx
  800051:	83 ec 04             	sub    $0x4,%esp
	t->msec = msec;
  800054:	8b 5d 08             	mov    0x8(%ebp),%ebx
  800057:	89 18                	mov    %ebx,(%eax)
	t->func = func;
  800059:	89 50 04             	mov    %edx,0x4(%eax)
	t->name = name;
  80005c:	89 48 08             	mov    %ecx,0x8(%eax)
	int r = thread_create(0, name, &net_timer, (uint32_t)t);
  80005f:	50                   	push   %eax
  800060:	68 94 00 80 00       	push   $0x800094
  800065:	51                   	push   %ecx
  800066:	6a 00                	push   $0x0
  800068:	e8 4b a6 00 00       	call   80a6b8 <thread_create>
	if (r < 0)
  80006d:	83 c4 10             	add    $0x10,%esp
  800070:	85 c0                	test   %eax,%eax
  800072:	78 05                	js     800079 <start_timer+0x2c>
}
  800074:	8b 5d fc             	mov    -0x4(%ebp),%ebx
  800077:	c9                   	leave  
  800078:	c3                   	ret    
		panic("cannot create timer thread: %s", e2s(r));
  800079:	83 ec 0c             	sub    $0xc,%esp
  80007c:	50                   	push   %eax
  80007d:	e8 67 a9 00 00       	call   80a9e9 <e2s>
  800082:	50                   	push   %eax
  800083:	68 00 0f 81 00       	push   $0x810f00
  800088:	6a 7a                	push   $0x7a
  80008a:	68 35 10 81 00       	push   $0x811035
  80008f:	e8 bf e5 00 00       	call   80e653 <_panic>

00800094 <net_timer>:
{
  800094:	55                   	push   %ebp
  800095:	89 e5                	mov    %esp,%ebp
  800097:	56                   	push   %esi
  800098:	53                   	push   %ebx
	struct timer_thread *t = (struct timer_thread *) arg;
  800099:	8b 75 08             	mov    0x8(%ebp),%esi
		uint32_t cur = sys_time_msec();
  80009c:	e8 14 f3 00 00       	call   80f3b5 <sys_time_msec>
  8000a1:	89 c3                	mov    %eax,%ebx
		lwip_core_lock();
  8000a3:	e8 69 a5 00 00       	call   80a611 <lwip_core_lock>
		t->func();
  8000a8:	ff 56 04             	call   *0x4(%esi)
		lwip_core_unlock();
  8000ab:	e8 66 a5 00 00       	call   80a616 <lwip_core_unlock>
		thread_wait(0, 0, cur + t->msec);
  8000b0:	83 ec 04             	sub    $0x4,%esp
  8000b3:	03 1e                	add    (%esi),%ebx
  8000b5:	53                   	push   %ebx
  8000b6:	6a 00                	push   $0x0
  8000b8:	6a 00                	push   $0x0
  8000ba:	e8 a5 a7 00 00       	call   80a864 <thread_wait>
  8000bf:	83 c4 10             	add    $0x10,%esp
  8000c2:	eb d8                	jmp    80009c <net_timer+0x8>

008000c4 <serve_thread>:
	uint32_t whom;
	union Nsipc *req;
};

static void
serve_thread(uint32_t a) {
  8000c4:	55                   	push   %ebp
  8000c5:	89 e5                	mov    %esp,%ebp
  8000c7:	57                   	push   %edi
  8000c8:	56                   	push   %esi
  8000c9:	53                   	push   %ebx
  8000ca:	83 ec 7c             	sub    $0x7c,%esp
  8000cd:	8b 5d 08             	mov    0x8(%ebp),%ebx
	struct st_args *args = (struct st_args *)a;
	union Nsipc *req = args->req;
  8000d0:	8b 73 08             	mov    0x8(%ebx),%esi
	int r;

	switch (args->reqno) {
  8000d3:	83 3b 0a             	cmpl   $0xa,(%ebx)
  8000d6:	0f 87 5e 01 00 00    	ja     80023a <serve_thread+0x176>
  8000dc:	8b 03                	mov    (%ebx),%eax
  8000de:	ff 24 85 e0 10 81 00 	jmp    *0x8110e0(,%eax,4)
	case NSREQ_ACCEPT:
	{
		struct Nsret_accept ret;
		ret.ret_addrlen = req->accept.req_addrlen;
  8000e5:	8b 46 04             	mov    0x4(%esi),%eax
  8000e8:	89 45 94             	mov    %eax,-0x6c(%ebp)
		r = lwip_accept(req->accept.req_s, &ret.ret_addr,
  8000eb:	83 ec 04             	sub    $0x4,%esp
  8000ee:	8d 45 94             	lea    -0x6c(%ebp),%eax
  8000f1:	50                   	push   %eax
  8000f2:	8d 45 84             	lea    -0x7c(%ebp),%eax
  8000f5:	50                   	push   %eax
  8000f6:	ff 36                	pushl  (%esi)
  8000f8:	e8 20 0d 00 00       	call   800e1d <lwip_accept>
  8000fd:	89 c7                	mov    %eax,%edi
				&ret.ret_addrlen);
		memmove(req, &ret, sizeof ret);
  8000ff:	83 c4 0c             	add    $0xc,%esp
  800102:	6a 14                	push   $0x14
  800104:	8d 45 84             	lea    -0x7c(%ebp),%eax
  800107:	50                   	push   %eax
  800108:	56                   	push   %esi
  800109:	e8 4b ee 00 00       	call   80ef59 <memmove>
  80010e:	83 c4 10             	add    $0x10,%esp
		cprintf("Invalid request code %d from %08x\n", args->whom, args->req);
		r = -E_INVAL;
		break;
	}

	if (r == -1) {
  800111:	83 ff ff             	cmp    $0xffffffff,%edi
  800114:	0f 84 3e 01 00 00    	je     800258 <serve_thread+0x194>
		char buf[100];
		snprintf(buf, sizeof buf, "ns req type %d", args->reqno);
		perror(buf);
	}

	if (args->reqno != NSREQ_INPUT)
  80011a:	83 3b 0a             	cmpl   $0xa,(%ebx)
  80011d:	74 10                	je     80012f <serve_thread+0x6b>
		ipc_send(args->whom, r, 0, 0);
  80011f:	6a 00                	push   $0x0
  800121:	6a 00                	push   $0x0
  800123:	57                   	push   %edi
  800124:	ff 73 04             	pushl  0x4(%ebx)
  800127:	e8 3d f6 00 00       	call   80f769 <ipc_send>
  80012c:	83 c4 10             	add    $0x10,%esp

	put_buffer(args->req);
  80012f:	8b 53 08             	mov    0x8(%ebx),%edx
	int i = ((uint32_t)va - REQVA) / PGSIZE;
  800132:	8d 82 00 50 01 f0    	lea    -0xffeb000(%edx),%eax
  800138:	c1 e8 0c             	shr    $0xc,%eax
	buse[i] = 0;
  80013b:	c6 80 00 50 81 00 00 	movb   $0x0,0x815000(%eax)
	sys_page_unmap(0, (void*) args->req);
  800142:	83 ec 08             	sub    $0x8,%esp
  800145:	52                   	push   %edx
  800146:	6a 00                	push   $0x0
  800148:	e8 fc f0 00 00       	call   80f249 <sys_page_unmap>
	free(args);
  80014d:	89 1c 24             	mov    %ebx,(%esp)
  800150:	e8 88 06 01 00       	call   8107dd <free>
}
  800155:	83 c4 10             	add    $0x10,%esp
  800158:	8d 65 f4             	lea    -0xc(%ebp),%esp
  80015b:	5b                   	pop    %ebx
  80015c:	5e                   	pop    %esi
  80015d:	5f                   	pop    %edi
  80015e:	5d                   	pop    %ebp
  80015f:	c3                   	ret    
		r = lwip_bind(req->bind.req_s, &req->bind.req_name,
  800160:	83 ec 04             	sub    $0x4,%esp
  800163:	ff 76 14             	pushl  0x14(%esi)
  800166:	8d 46 04             	lea    0x4(%esi),%eax
  800169:	50                   	push   %eax
  80016a:	ff 36                	pushl  (%esi)
  80016c:	e8 5e 0e 00 00       	call   800fcf <lwip_bind>
  800171:	89 c7                	mov    %eax,%edi
		break;
  800173:	83 c4 10             	add    $0x10,%esp
  800176:	eb 99                	jmp    800111 <serve_thread+0x4d>
		r = lwip_shutdown(req->shutdown.req_s, req->shutdown.req_how);
  800178:	83 ec 08             	sub    $0x8,%esp
  80017b:	ff 76 04             	pushl  0x4(%esi)
  80017e:	ff 36                	pushl  (%esi)
  800180:	e8 9d 19 00 00       	call   801b22 <lwip_shutdown>
  800185:	89 c7                	mov    %eax,%edi
		break;
  800187:	83 c4 10             	add    $0x10,%esp
  80018a:	eb 85                	jmp    800111 <serve_thread+0x4d>
		r = lwip_close(req->close.req_s);
  80018c:	83 ec 0c             	sub    $0xc,%esp
  80018f:	ff 36                	pushl  (%esi)
  800191:	e8 ef 0e 00 00       	call   801085 <lwip_close>
  800196:	89 c7                	mov    %eax,%edi
		break;
  800198:	83 c4 10             	add    $0x10,%esp
  80019b:	e9 71 ff ff ff       	jmp    800111 <serve_thread+0x4d>
		r = lwip_connect(req->connect.req_s, &req->connect.req_name,
  8001a0:	83 ec 04             	sub    $0x4,%esp
  8001a3:	ff 76 14             	pushl  0x14(%esi)
  8001a6:	8d 46 04             	lea    0x4(%esi),%eax
  8001a9:	50                   	push   %eax
  8001aa:	ff 36                	pushl  (%esi)
  8001ac:	e8 5d 0f 00 00       	call   80110e <lwip_connect>
  8001b1:	89 c7                	mov    %eax,%edi
		break;
  8001b3:	83 c4 10             	add    $0x10,%esp
  8001b6:	e9 56 ff ff ff       	jmp    800111 <serve_thread+0x4d>
		r = lwip_listen(req->listen.req_s, req->listen.req_backlog);
  8001bb:	83 ec 08             	sub    $0x8,%esp
  8001be:	ff 76 04             	pushl  0x4(%esi)
  8001c1:	ff 36                	pushl  (%esi)
  8001c3:	e8 fc 0f 00 00       	call   8011c4 <lwip_listen>
  8001c8:	89 c7                	mov    %eax,%edi
		break;
  8001ca:	83 c4 10             	add    $0x10,%esp
  8001cd:	e9 3f ff ff ff       	jmp    800111 <serve_thread+0x4d>
		r = lwip_recv(req->recv.req_s, req->recvRet.ret_buf,
  8001d2:	ff 76 08             	pushl  0x8(%esi)
  8001d5:	ff 76 04             	pushl  0x4(%esi)
  8001d8:	56                   	push   %esi
  8001d9:	ff 36                	pushl  (%esi)
  8001db:	e8 e0 12 00 00       	call   8014c0 <lwip_recv>
  8001e0:	89 c7                	mov    %eax,%edi
		break;
  8001e2:	83 c4 10             	add    $0x10,%esp
  8001e5:	e9 27 ff ff ff       	jmp    800111 <serve_thread+0x4d>
		r = lwip_send(req->send.req_s, &req->send.req_buf,
  8001ea:	ff 76 08             	pushl  0x8(%esi)
  8001ed:	ff 76 04             	pushl  0x4(%esi)
  8001f0:	8d 46 0c             	lea    0xc(%esi),%eax
  8001f3:	50                   	push   %eax
  8001f4:	ff 36                	pushl  (%esi)
  8001f6:	e8 57 14 00 00       	call   801652 <lwip_send>
  8001fb:	89 c7                	mov    %eax,%edi
		break;
  8001fd:	83 c4 10             	add    $0x10,%esp
  800200:	e9 0c ff ff ff       	jmp    800111 <serve_thread+0x4d>
		r = lwip_socket(req->socket.req_domain, req->socket.req_type,
  800205:	83 ec 04             	sub    $0x4,%esp
  800208:	ff 76 08             	pushl  0x8(%esi)
  80020b:	ff 76 04             	pushl  0x4(%esi)
  80020e:	ff 36                	pushl  (%esi)
  800210:	e8 ce 14 00 00       	call   8016e3 <lwip_socket>
  800215:	89 c7                	mov    %eax,%edi
		break;
  800217:	83 c4 10             	add    $0x10,%esp
  80021a:	e9 f2 fe ff ff       	jmp    800111 <serve_thread+0x4d>
		jif_input(&nif, (void *)&req->pkt);
  80021f:	83 ec 08             	sub    $0x8,%esp
  800222:	56                   	push   %esi
  800223:	68 00 b2 b3 00       	push   $0xb3b200
  800228:	e8 ab a8 00 00       	call   80aad8 <jif_input>
  80022d:	83 c4 10             	add    $0x10,%esp
		r = 0;
  800230:	bf 00 00 00 00       	mov    $0x0,%edi
  800235:	e9 e0 fe ff ff       	jmp    80011a <serve_thread+0x56>
		cprintf("Invalid request code %d from %08x\n", args->whom, args->req);
  80023a:	83 ec 04             	sub    $0x4,%esp
  80023d:	56                   	push   %esi
  80023e:	ff 73 04             	pushl  0x4(%ebx)
  800241:	68 20 0f 81 00       	push   $0x810f20
  800246:	e8 e3 e4 00 00       	call   80e72e <cprintf>
  80024b:	83 c4 10             	add    $0x10,%esp
		r = -E_INVAL;
  80024e:	bf fd ff ff ff       	mov    $0xfffffffd,%edi
  800253:	e9 c2 fe ff ff       	jmp    80011a <serve_thread+0x56>
		snprintf(buf, sizeof buf, "ns req type %d", args->reqno);
  800258:	ff 33                	pushl  (%ebx)
  80025a:	68 40 10 81 00       	push   $0x811040
  80025f:	6a 64                	push   $0x64
  800261:	8d 75 84             	lea    -0x7c(%ebp),%esi
  800264:	56                   	push   %esi
  800265:	e8 10 eb 00 00       	call   80ed7a <snprintf>
		perror(buf);
  80026a:	89 34 24             	mov    %esi,(%esp)
  80026d:	e8 53 a7 00 00       	call   80a9c5 <perror>
  800272:	83 c4 10             	add    $0x10,%esp
  800275:	e9 a0 fe ff ff       	jmp    80011a <serve_thread+0x56>

0080027a <serve_init>:
{
  80027a:	55                   	push   %ebp
  80027b:	89 e5                	mov    %esp,%ebp
  80027d:	56                   	push   %esi
  80027e:	53                   	push   %ebx
  80027f:	83 ec 10             	sub    $0x10,%esp
  800282:	8b 75 08             	mov    0x8(%ebp),%esi
	lwip_core_lock();
  800285:	e8 87 a3 00 00       	call   80a611 <lwip_core_lock>
	uint32_t done = 0;
  80028a:	c7 45 f4 00 00 00 00 	movl   $0x0,-0xc(%ebp)
	tcpip_init(&tcpip_init_done, &done);
  800291:	83 ec 08             	sub    $0x8,%esp
  800294:	8d 5d f4             	lea    -0xc(%ebp),%ebx
  800297:	53                   	push   %ebx
  800298:	68 33 00 80 00       	push   $0x800033
  80029d:	e8 06 21 00 00       	call   8023a8 <tcpip_init>
	lwip_core_unlock();
  8002a2:	e8 6f a3 00 00       	call   80a616 <lwip_core_unlock>
	thread_wait(&done, 0, (uint32_t)~0);
  8002a7:	83 c4 0c             	add    $0xc,%esp
  8002aa:	6a ff                	push   $0xffffffff
  8002ac:	6a 00                	push   $0x0
  8002ae:	53                   	push   %ebx
  8002af:	e8 b0 a5 00 00       	call   80a864 <thread_wait>
	lwip_core_lock();
  8002b4:	e8 58 a3 00 00       	call   80a611 <lwip_core_lock>
	ipaddr.addr  = init_addr;
  8002b9:	89 75 e8             	mov    %esi,-0x18(%ebp)
	netmask.addr = init_mask;
  8002bc:	8b 45 0c             	mov    0xc(%ebp),%eax
  8002bf:	89 45 ec             	mov    %eax,-0x14(%ebp)
	gateway.addr = init_gw;
  8002c2:	8b 45 10             	mov    0x10(%ebp),%eax
  8002c5:	89 45 f0             	mov    %eax,-0x10(%ebp)
	if (0 == netif_add(nif, &ipaddr, &netmask, &gateway,
  8002c8:	83 c4 0c             	add    $0xc,%esp
  8002cb:	68 da 65 80 00       	push   $0x8065da
  8002d0:	68 c6 ab 80 00       	push   $0x80abc6
  8002d5:	68 14 50 81 00       	push   $0x815014
  8002da:	8d 45 f0             	lea    -0x10(%ebp),%eax
  8002dd:	50                   	push   %eax
  8002de:	8d 45 ec             	lea    -0x14(%ebp),%eax
  8002e1:	50                   	push   %eax
  8002e2:	8d 45 e8             	lea    -0x18(%ebp),%eax
  8002e5:	50                   	push   %eax
  8002e6:	68 00 b2 b3 00       	push   $0xb3b200
  8002eb:	e8 72 43 00 00       	call   804662 <netif_add>
  8002f0:	83 c4 20             	add    $0x20,%esp
  8002f3:	85 c0                	test   %eax,%eax
  8002f5:	0f 84 cc 00 00 00    	je     8003c7 <serve_init+0x14d>
	netif_set_default(nif);
  8002fb:	83 ec 0c             	sub    $0xc,%esp
  8002fe:	68 00 b2 b3 00       	push   $0xb3b200
  800303:	e8 0c 44 00 00       	call   804714 <netif_set_default>
	netif_set_up(nif);
  800308:	c7 04 24 00 b2 b3 00 	movl   $0xb3b200,(%esp)
  80030f:	e8 0d 44 00 00       	call   804721 <netif_set_up>
	start_timer(&t_arp, &etharp_tmr, "arp timer", ARP_TMR_INTERVAL);
  800314:	c7 04 24 88 13 00 00 	movl   $0x1388,(%esp)
  80031b:	b9 4f 10 81 00       	mov    $0x81104f,%ecx
  800320:	ba 91 95 80 00       	mov    $0x809591,%edx
  800325:	b8 34 50 81 00       	mov    $0x815034,%eax
  80032a:	e8 1e fd ff ff       	call   80004d <start_timer>
	start_timer(&t_tcpf, &tcp_fasttmr, "tcp f timer", TCP_FAST_INTERVAL);
  80032f:	c7 04 24 fa 00 00 00 	movl   $0xfa,(%esp)
  800336:	b9 59 10 81 00       	mov    $0x811059,%ecx
  80033b:	ba 46 57 80 00       	mov    $0x805746,%edx
  800340:	b8 28 50 81 00       	mov    $0x815028,%eax
  800345:	e8 03 fd ff ff       	call   80004d <start_timer>
	start_timer(&t_tcps, &tcp_slowtmr, "tcp s timer", TCP_SLOW_INTERVAL);
  80034a:	c7 04 24 f4 01 00 00 	movl   $0x1f4,(%esp)
  800351:	b9 65 10 81 00       	mov    $0x811065,%ecx
  800356:	ba 27 5d 80 00       	mov    $0x805d27,%edx
  80035b:	b8 1c 50 81 00       	mov    $0x81501c,%eax
  800360:	e8 e8 fc ff ff       	call   80004d <start_timer>
	cprintf("ns: %02x:%02x:%02x:%02x:%02x:%02x"
  800365:	89 34 24             	mov    %esi,(%esp)
  800368:	e8 7f 73 00 00       	call   8076ec <inet_ntoa>
  80036d:	50                   	push   %eax
  80036e:	0f b6 05 2a b2 b3 00 	movzbl 0xb3b22a,%eax
  800375:	50                   	push   %eax
  800376:	0f b6 05 29 b2 b3 00 	movzbl 0xb3b229,%eax
  80037d:	50                   	push   %eax
  80037e:	0f b6 05 28 b2 b3 00 	movzbl 0xb3b228,%eax
  800385:	50                   	push   %eax
  800386:	0f b6 05 27 b2 b3 00 	movzbl 0xb3b227,%eax
  80038d:	50                   	push   %eax
  80038e:	0f b6 05 26 b2 b3 00 	movzbl 0xb3b226,%eax
  800395:	50                   	push   %eax
  800396:	0f b6 05 25 b2 b3 00 	movzbl 0xb3b225,%eax
  80039d:	50                   	push   %eax
  80039e:	68 64 0f 81 00       	push   $0x810f64
  8003a3:	e8 86 e3 00 00       	call   80e72e <cprintf>
	lwip_core_unlock();
  8003a8:	83 c4 30             	add    $0x30,%esp
  8003ab:	e8 66 a2 00 00       	call   80a616 <lwip_core_unlock>
	cprintf("NS: TCP/IP initialized.\n");
  8003b0:	83 ec 0c             	sub    $0xc,%esp
  8003b3:	68 71 10 81 00       	push   $0x811071
  8003b8:	e8 71 e3 00 00       	call   80e72e <cprintf>
}
  8003bd:	83 c4 10             	add    $0x10,%esp
  8003c0:	8d 65 f8             	lea    -0x8(%ebp),%esp
  8003c3:	5b                   	pop    %ebx
  8003c4:	5e                   	pop    %esi
  8003c5:	5d                   	pop    %ebp
  8003c6:	c3                   	ret    
		panic("lwip_init: error in netif_add\n");
  8003c7:	83 ec 04             	sub    $0x4,%esp
  8003ca:	68 44 0f 81 00       	push   $0x810f44
  8003cf:	6a 5c                	push   $0x5c
  8003d1:	68 35 10 81 00       	push   $0x811035
  8003d6:	e8 78 e2 00 00       	call   80e653 <_panic>

008003db <serve>:

void
serve(void) {
  8003db:	55                   	push   %ebp
  8003dc:	89 e5                	mov    %esp,%ebp
  8003de:	57                   	push   %edi
  8003df:	56                   	push   %esi
  8003e0:	53                   	push   %ebx
  8003e1:	83 ec 2c             	sub    $0x2c,%esp
		for (i = 0; thread_wakeups_pending() && i < 32; ++i)
			thread_yield();

		perm = 0;
		va = get_buffer();
		reqno = ipc_recv((int32_t *) &whom, (void *) va, &perm);
  8003e4:	8d 7d e0             	lea    -0x20(%ebp),%edi
  8003e7:	e9 b8 00 00 00       	jmp    8004a4 <serve+0xc9>
			thread_yield();
  8003ec:	e8 f0 a3 00 00       	call   80a7e1 <thread_yield>
		for (i = 0; thread_wakeups_pending() && i < 32; ++i)
  8003f1:	83 c3 01             	add    $0x1,%ebx
  8003f4:	e8 72 a2 00 00       	call   80a66b <thread_wakeups_pending>
  8003f9:	85 c0                	test   %eax,%eax
  8003fb:	74 05                	je     800402 <serve+0x27>
  8003fd:	83 fb 1f             	cmp    $0x1f,%ebx
  800400:	7e ea                	jle    8003ec <serve+0x11>
		perm = 0;
  800402:	c7 45 e0 00 00 00 00 	movl   $0x0,-0x20(%ebp)
	for (i = 0; i < QUEUE_SIZE; i++)
  800409:	b8 00 00 00 00       	mov    $0x0,%eax
		if (!buse[i]) break;
  80040e:	80 b8 00 50 81 00 00 	cmpb   $0x0,0x815000(%eax)
  800415:	74 1c                	je     800433 <serve+0x58>
	for (i = 0; i < QUEUE_SIZE; i++)
  800417:	83 c0 01             	add    $0x1,%eax
  80041a:	83 f8 14             	cmp    $0x14,%eax
  80041d:	75 ef                	jne    80040e <serve+0x33>
		panic("NS: buffer overflow");
  80041f:	83 ec 04             	sub    $0x4,%esp
  800422:	68 8a 10 81 00       	push   $0x81108a
  800427:	6a 3f                	push   $0x3f
  800429:	68 35 10 81 00       	push   $0x811035
  80042e:	e8 20 e2 00 00       	call   80e653 <_panic>
	if (i == QUEUE_SIZE) {
  800433:	83 f8 14             	cmp    $0x14,%eax
  800436:	74 e7                	je     80041f <serve+0x44>
	va = (void *)(REQVA + i * PGSIZE);
  800438:	8d 98 eb ff 00 00    	lea    0xffeb(%eax),%ebx
  80043e:	c1 e3 0c             	shl    $0xc,%ebx
	buse[i] = 1;
  800441:	c6 80 00 50 81 00 01 	movb   $0x1,0x815000(%eax)
		reqno = ipc_recv((int32_t *) &whom, (void *) va, &perm);
  800448:	83 ec 04             	sub    $0x4,%esp
  80044b:	57                   	push   %edi
  80044c:	53                   	push   %ebx
  80044d:	8d 45 e4             	lea    -0x1c(%ebp),%eax
  800450:	50                   	push   %eax
  800451:	e8 aa f2 00 00       	call   80f700 <ipc_recv>
  800456:	89 c6                	mov    %eax,%esi
		if (debug) {
			cprintf("ns req %d from %08x\n", reqno, whom);
		}

		// first take care of requests that do not contain an argument page
		if (reqno == NSREQ_TIMER) {
  800458:	83 c4 10             	add    $0x10,%esp
  80045b:	83 f8 0c             	cmp    $0xc,%eax
  80045e:	74 4e                	je     8004ae <serve+0xd3>
			put_buffer(va);
			continue;
		}

		// All remaining requests must contain an argument page
		if (!(perm & PTE_P)) {
  800460:	f6 45 e0 01          	testb  $0x1,-0x20(%ebp)
  800464:	0f 84 9f 00 00 00    	je     800509 <serve+0x12e>
			continue; // just leave it hanging...
		}

		// Since some lwIP socket calls will block, create a thread and
		// process the rest of the request in the thread.
		struct st_args *args = malloc(sizeof(struct st_args));
  80046a:	83 ec 0c             	sub    $0xc,%esp
  80046d:	6a 0c                	push   $0xc
  80046f:	e8 17 04 01 00       	call   81088b <malloc>
		if (!args)
  800474:	83 c4 10             	add    $0x10,%esp
  800477:	85 c0                	test   %eax,%eax
  800479:	0f 84 9f 00 00 00    	je     80051e <serve+0x143>
			panic("could not allocate thread args structure");

		args->reqno = reqno;
  80047f:	89 30                	mov    %esi,(%eax)
		args->whom = whom;
  800481:	8b 55 e4             	mov    -0x1c(%ebp),%edx
  800484:	89 50 04             	mov    %edx,0x4(%eax)
		args->req = va;
  800487:	89 58 08             	mov    %ebx,0x8(%eax)

		thread_create(0, "serve_thread", serve_thread, (uint32_t)args);
  80048a:	50                   	push   %eax
  80048b:	68 c4 00 80 00       	push   $0x8000c4
  800490:	68 9e 10 81 00       	push   $0x81109e
  800495:	6a 00                	push   $0x0
  800497:	e8 1c a2 00 00       	call   80a6b8 <thread_create>
		thread_yield(); // let the thread created run
  80049c:	e8 40 a3 00 00       	call   80a7e1 <thread_yield>
  8004a1:	83 c4 10             	add    $0x10,%esp
		for (i = 0; thread_wakeups_pending() && i < 32; ++i)
  8004a4:	bb 00 00 00 00       	mov    $0x0,%ebx
  8004a9:	e9 46 ff ff ff       	jmp    8003f4 <serve+0x19>
			process_timer(whom);
  8004ae:	8b 75 e4             	mov    -0x1c(%ebp),%esi
	if (envid != timer_envid) {
  8004b1:	3b 35 18 50 81 00    	cmp    0x815018,%esi
  8004b7:	74 23                	je     8004dc <serve+0x101>
		cprintf("NS: received timer interrupt from envid %x not timer env\n", envid);
  8004b9:	83 ec 08             	sub    $0x8,%esp
  8004bc:	56                   	push   %esi
  8004bd:	68 a0 0f 81 00       	push   $0x810fa0
  8004c2:	e8 67 e2 00 00       	call   80e72e <cprintf>
  8004c7:	83 c4 10             	add    $0x10,%esp
	int i = ((uint32_t)va - REQVA) / PGSIZE;
  8004ca:	81 eb 00 b0 fe 0f    	sub    $0xffeb000,%ebx
  8004d0:	c1 eb 0c             	shr    $0xc,%ebx
	buse[i] = 0;
  8004d3:	c6 83 00 50 81 00 00 	movb   $0x0,0x815000(%ebx)
			continue;
  8004da:	eb c8                	jmp    8004a4 <serve+0xc9>
	start = sys_time_msec();
  8004dc:	e8 d4 ee 00 00       	call   80f3b5 <sys_time_msec>
  8004e1:	89 45 d4             	mov    %eax,-0x2c(%ebp)
	thread_yield();
  8004e4:	e8 f8 a2 00 00       	call   80a7e1 <thread_yield>
	now = sys_time_msec();
  8004e9:	e8 c7 ee 00 00       	call   80f3b5 <sys_time_msec>
	ipc_send(envid, to, 0, 0);
  8004ee:	6a 00                	push   $0x0
  8004f0:	6a 00                	push   $0x0
	to = TIMER_INTERVAL - (now - start);
  8004f2:	8b 55 d4             	mov    -0x2c(%ebp),%edx
  8004f5:	81 c2 fa 00 00 00    	add    $0xfa,%edx
  8004fb:	29 c2                	sub    %eax,%edx
	ipc_send(envid, to, 0, 0);
  8004fd:	52                   	push   %edx
  8004fe:	56                   	push   %esi
  8004ff:	e8 65 f2 00 00       	call   80f769 <ipc_send>
  800504:	83 c4 10             	add    $0x10,%esp
  800507:	eb c1                	jmp    8004ca <serve+0xef>
			cprintf("Invalid request from %08x: no argument page\n", whom);
  800509:	83 ec 08             	sub    $0x8,%esp
  80050c:	ff 75 e4             	pushl  -0x1c(%ebp)
  80050f:	68 dc 0f 81 00       	push   $0x810fdc
  800514:	e8 15 e2 00 00       	call   80e72e <cprintf>
			continue; // just leave it hanging...
  800519:	83 c4 10             	add    $0x10,%esp
  80051c:	eb 86                	jmp    8004a4 <serve+0xc9>
			panic("could not allocate thread args structure");
  80051e:	83 ec 04             	sub    $0x4,%esp
  800521:	68 0c 10 81 00       	push   $0x81100c
  800526:	68 27 01 00 00       	push   $0x127
  80052b:	68 35 10 81 00       	push   $0x811035
  800530:	e8 1e e1 00 00       	call   80e653 <_panic>

00800535 <tmain>:
	}
}

static void
tmain(uint32_t arg) {
  800535:	55                   	push   %ebp
  800536:	89 e5                	mov    %esp,%ebp
  800538:	56                   	push   %esi
  800539:	53                   	push   %ebx
	serve_init(inet_addr(IP),
  80053a:	83 ec 0c             	sub    $0xc,%esp
  80053d:	68 ab 10 81 00       	push   $0x8110ab
  800542:	e8 51 74 00 00       	call   807998 <inet_addr>
  800547:	89 c6                	mov    %eax,%esi
  800549:	c7 04 24 b4 10 81 00 	movl   $0x8110b4,(%esp)
  800550:	e8 43 74 00 00       	call   807998 <inet_addr>
  800555:	89 c3                	mov    %eax,%ebx
  800557:	c7 04 24 c2 10 81 00 	movl   $0x8110c2,(%esp)
  80055e:	e8 35 74 00 00       	call   807998 <inet_addr>
  800563:	83 c4 0c             	add    $0xc,%esp
  800566:	56                   	push   %esi
  800567:	53                   	push   %ebx
  800568:	50                   	push   %eax
  800569:	e8 0c fd ff ff       	call   80027a <serve_init>
		   inet_addr(MASK),
		   inet_addr(DEFAULT));
	serve();
  80056e:	e8 68 fe ff ff       	call   8003db <serve>

00800573 <umain>:
}

void
umain(int argc, char **argv)
{
  800573:	55                   	push   %ebp
  800574:	89 e5                	mov    %esp,%ebp
  800576:	53                   	push   %ebx
  800577:	83 ec 04             	sub    $0x4,%esp
	envid_t ns_envid = sys_getenvid();
  80057a:	e8 07 ec 00 00       	call   80f186 <sys_getenvid>
  80057f:	89 c3                	mov    %eax,%ebx

	binaryname = "ns";
  800581:	c7 05 e8 42 81 00 1a 	movl   $0x813a1a,0x8142e8
  800588:	3a 81 00 

	// fork off the timer thread which will send us periodic messages
	timer_envid = fork();
  80058b:	e8 2e ef 00 00       	call   80f4be <fork>
  800590:	a3 18 50 81 00       	mov    %eax,0x815018
	if (timer_envid < 0)
  800595:	85 c0                	test   %eax,%eax
  800597:	78 49                	js     8005e2 <umain+0x6f>
		panic("error forking");
	else if (timer_envid == 0) {
  800599:	85 c0                	test   %eax,%eax
  80059b:	74 5c                	je     8005f9 <umain+0x86>
		return;
	}

	// fork off the input thread which will poll the NIC driver for input
	// packets
	input_envid = fork();
  80059d:	e8 1c ef 00 00       	call   80f4be <fork>
	if (input_envid < 0)
  8005a2:	85 c0                	test   %eax,%eax
  8005a4:	78 69                	js     80060f <umain+0x9c>
		panic("error forking");
	else if (input_envid == 0) {
  8005a6:	85 c0                	test   %eax,%eax
  8005a8:	74 7c                	je     800626 <umain+0xb3>
		return;
	}

	// fork off the output thread that will send the packets to the NIC
	// driver
	output_envid = fork();
  8005aa:	e8 0f ef 00 00       	call   80f4be <fork>
  8005af:	a3 14 50 81 00       	mov    %eax,0x815014
	if (output_envid < 0)
  8005b4:	85 c0                	test   %eax,%eax
  8005b6:	78 7c                	js     800634 <umain+0xc1>
		panic("error forking");
	else if (output_envid == 0) {
  8005b8:	85 c0                	test   %eax,%eax
  8005ba:	0f 84 8b 00 00 00    	je     80064b <umain+0xd8>
		return;
	}

	// lwIP requires a user threading library; start the library and jump
	// into a thread to continue initialization.
	thread_init();
  8005c0:	e8 56 a0 00 00       	call   80a61b <thread_init>
	thread_create(0, "main", tmain, 0);
  8005c5:	6a 00                	push   $0x0
  8005c7:	68 35 05 80 00       	push   $0x800535
  8005cc:	68 da 10 81 00       	push   $0x8110da
  8005d1:	6a 00                	push   $0x0
  8005d3:	e8 e0 a0 00 00       	call   80a6b8 <thread_create>
	thread_yield();
  8005d8:	e8 04 a2 00 00       	call   80a7e1 <thread_yield>
  8005dd:	83 c4 10             	add    $0x10,%esp
  8005e0:	eb 28                	jmp    80060a <umain+0x97>
		panic("error forking");
  8005e2:	83 ec 04             	sub    $0x4,%esp
  8005e5:	68 cc 10 81 00       	push   $0x8110cc
  8005ea:	68 44 01 00 00       	push   $0x144
  8005ef:	68 35 10 81 00       	push   $0x811035
  8005f4:	e8 5a e0 00 00       	call   80e653 <_panic>
		timer(ns_envid, TIMER_INTERVAL);
  8005f9:	83 ec 08             	sub    $0x8,%esp
  8005fc:	68 fa 00 00 00       	push   $0xfa
  800601:	53                   	push   %ebx
  800602:	e8 52 00 00 00       	call   800659 <timer>
		return;
  800607:	83 c4 10             	add    $0x10,%esp
	// never coming here!
}
  80060a:	8b 5d fc             	mov    -0x4(%ebp),%ebx
  80060d:	c9                   	leave  
  80060e:	c3                   	ret    
		panic("error forking");
  80060f:	83 ec 04             	sub    $0x4,%esp
  800612:	68 cc 10 81 00       	push   $0x8110cc
  800617:	68 4e 01 00 00       	push   $0x14e
  80061c:	68 35 10 81 00       	push   $0x811035
  800621:	e8 2d e0 00 00       	call   80e653 <_panic>
		input(ns_envid);
  800626:	83 ec 0c             	sub    $0xc,%esp
  800629:	53                   	push   %ebx
  80062a:	e8 bd 00 00 00       	call   8006ec <input>
		return;
  80062f:	83 c4 10             	add    $0x10,%esp
  800632:	eb d6                	jmp    80060a <umain+0x97>
		panic("error forking");
  800634:	83 ec 04             	sub    $0x4,%esp
  800637:	68 cc 10 81 00       	push   $0x8110cc
  80063c:	68 58 01 00 00       	push   $0x158
  800641:	68 35 10 81 00       	push   $0x811035
  800646:	e8 08 e0 00 00       	call   80e653 <_panic>
		output(ns_envid);
  80064b:	83 ec 0c             	sub    $0xc,%esp
  80064e:	53                   	push   %ebx
  80064f:	e8 a7 00 00 00       	call   8006fb <output>
		return;
  800654:	83 c4 10             	add    $0x10,%esp
  800657:	eb b1                	jmp    80060a <umain+0x97>

00800659 <timer>:
#include "ns.h"

void
timer(envid_t ns_envid, uint32_t initial_to) {
  800659:	55                   	push   %ebp
  80065a:	89 e5                	mov    %esp,%ebp
  80065c:	57                   	push   %edi
  80065d:	56                   	push   %esi
  80065e:	53                   	push   %ebx
  80065f:	83 ec 1c             	sub    $0x1c,%esp
  800662:	8b 75 08             	mov    0x8(%ebp),%esi
	int r;
	uint32_t stop = sys_time_msec() + initial_to;
  800665:	e8 4b ed 00 00       	call   80f3b5 <sys_time_msec>
  80066a:	03 45 0c             	add    0xc(%ebp),%eax
  80066d:	89 c3                	mov    %eax,%ebx

	binaryname = "ns_timer";
  80066f:	c7 05 e8 42 81 00 0c 	movl   $0x81110c,0x8142e8
  800676:	11 81 00 

		ipc_send(ns_envid, NSREQ_TIMER, 0, 0);

		while (1) {
			uint32_t to, whom;
			to = ipc_recv((int32_t *) &whom, 0, 0);
  800679:	8d 7d e4             	lea    -0x1c(%ebp),%edi
  80067c:	eb 33                	jmp    8006b1 <timer+0x58>
		if (r < 0)
  80067e:	85 c0                	test   %eax,%eax
  800680:	78 45                	js     8006c7 <timer+0x6e>
		ipc_send(ns_envid, NSREQ_TIMER, 0, 0);
  800682:	6a 00                	push   $0x0
  800684:	6a 00                	push   $0x0
  800686:	6a 0c                	push   $0xc
  800688:	56                   	push   %esi
  800689:	e8 db f0 00 00       	call   80f769 <ipc_send>
  80068e:	83 c4 10             	add    $0x10,%esp
			to = ipc_recv((int32_t *) &whom, 0, 0);
  800691:	83 ec 04             	sub    $0x4,%esp
  800694:	6a 00                	push   $0x0
  800696:	6a 00                	push   $0x0
  800698:	57                   	push   %edi
  800699:	e8 62 f0 00 00       	call   80f700 <ipc_recv>
  80069e:	89 c3                	mov    %eax,%ebx

			if (whom != ns_envid) {
  8006a0:	8b 45 e4             	mov    -0x1c(%ebp),%eax
  8006a3:	83 c4 10             	add    $0x10,%esp
  8006a6:	39 f0                	cmp    %esi,%eax
  8006a8:	75 2f                	jne    8006d9 <timer+0x80>
				cprintf("NS TIMER: timer thread got IPC message from env %x not NS\n", whom);
				continue;
			}

			stop = sys_time_msec() + to;
  8006aa:	e8 06 ed 00 00       	call   80f3b5 <sys_time_msec>
  8006af:	01 c3                	add    %eax,%ebx
		while((r = sys_time_msec()) < stop && r >= 0) {
  8006b1:	e8 ff ec 00 00       	call   80f3b5 <sys_time_msec>
  8006b6:	89 c2                	mov    %eax,%edx
  8006b8:	85 c0                	test   %eax,%eax
  8006ba:	78 c2                	js     80067e <timer+0x25>
  8006bc:	39 d8                	cmp    %ebx,%eax
  8006be:	73 be                	jae    80067e <timer+0x25>
			sys_yield();
  8006c0:	e8 e0 ea 00 00       	call   80f1a5 <sys_yield>
  8006c5:	eb ea                	jmp    8006b1 <timer+0x58>
			panic("sys_time_msec: %e", r);
  8006c7:	52                   	push   %edx
  8006c8:	68 15 11 81 00       	push   $0x811115
  8006cd:	6a 0f                	push   $0xf
  8006cf:	68 27 11 81 00       	push   $0x811127
  8006d4:	e8 7a df 00 00       	call   80e653 <_panic>
				cprintf("NS TIMER: timer thread got IPC message from env %x not NS\n", whom);
  8006d9:	83 ec 08             	sub    $0x8,%esp
  8006dc:	50                   	push   %eax
  8006dd:	68 34 11 81 00       	push   $0x811134
  8006e2:	e8 47 e0 00 00       	call   80e72e <cprintf>
				continue;
  8006e7:	83 c4 10             	add    $0x10,%esp
  8006ea:	eb a5                	jmp    800691 <timer+0x38>

008006ec <input>:

extern union Nsipc nsipcbuf;

void
input(envid_t ns_envid)
{
  8006ec:	55                   	push   %ebp
  8006ed:	89 e5                	mov    %esp,%ebp
	binaryname = "ns_input";
  8006ef:	c7 05 e8 42 81 00 6f 	movl   $0x81116f,0x8142e8
  8006f6:	11 81 00 
	// 	- read a packet from the device driver
	//	- send it to the network server
	// Hint: When you IPC a page to the network server, it will be
	// reading from it for a while, so don't immediately receive
	// another packet in to the same physical page.
}
  8006f9:	5d                   	pop    %ebp
  8006fa:	c3                   	ret    

008006fb <output>:

extern union Nsipc nsipcbuf;

void
output(envid_t ns_envid)
{
  8006fb:	55                   	push   %ebp
  8006fc:	89 e5                	mov    %esp,%ebp
	binaryname = "ns_output";
  8006fe:	c7 05 e8 42 81 00 78 	movl   $0x811178,0x8142e8
  800705:	11 81 00 

	// LAB 6: Your code here:
	// 	- read a packet from the network server
	//	- send the packet to the device driver
}
  800708:	5d                   	pop    %ebp
  800709:	c3                   	ret    

0080070a <get_socket>:
 * @param s externally used socket index
 * @return struct lwip_socket for the socket or NULL if not found
 */
static struct lwip_socket *
get_socket(int s)
{
  80070a:	55                   	push   %ebp
  80070b:	89 e5                	mov    %esp,%ebp
  struct lwip_socket *sock;

  if ((s < 0) || (s >= NUM_SOCKETS)) {
  80070d:	83 f8 1f             	cmp    $0x1f,%eax
  800710:	77 1b                	ja     80072d <get_socket+0x23>
  800712:	89 c2                	mov    %eax,%edx
    LWIP_DEBUGF(SOCKETS_DEBUG, ("get_socket(%d): invalid\n", s));
    set_errno(EBADF);
    return NULL;
  }

  sock = &sockets[s];
  800714:	8d 04 80             	lea    (%eax,%eax,4),%eax
  800717:	8d 04 85 60 50 81 00 	lea    0x815060(,%eax,4),%eax

  if (!sock->conn) {
  80071e:	8d 14 92             	lea    (%edx,%edx,4),%edx
  800721:	83 3c 95 60 50 81 00 	cmpl   $0x0,0x815060(,%edx,4)
  800728:	00 
  800729:	74 13                	je     80073e <get_socket+0x34>
    set_errno(EBADF);
    return NULL;
  }

  return sock;
}
  80072b:	5d                   	pop    %ebp
  80072c:	c3                   	ret    
    set_errno(EBADF);
  80072d:	c7 05 e0 b1 b3 00 09 	movl   $0x9,0xb3b1e0
  800734:	00 00 00 
    return NULL;
  800737:	b8 00 00 00 00       	mov    $0x0,%eax
  80073c:	eb ed                	jmp    80072b <get_socket+0x21>
    set_errno(EBADF);
  80073e:	c7 05 e0 b1 b3 00 09 	movl   $0x9,0xb3b1e0
  800745:	00 00 00 
    return NULL;
  800748:	b8 00 00 00 00       	mov    $0x0,%eax
  80074d:	eb dc                	jmp    80072b <get_socket+0x21>

0080074f <lwip_selscan>:
 * @param exceptset not yet implemented
 * @return number of sockets that had events (read+write)
 */
static int
lwip_selscan(int maxfdp1, fd_set *readset, fd_set *writeset, fd_set *exceptset)
{
  80074f:	55                   	push   %ebp
  800750:	89 e5                	mov    %esp,%ebp
  800752:	57                   	push   %edi
  800753:	56                   	push   %esi
  800754:	53                   	push   %ebx
  800755:	83 ec 40             	sub    $0x40,%esp
  800758:	89 45 d4             	mov    %eax,-0x2c(%ebp)
  80075b:	89 55 d0             	mov    %edx,-0x30(%ebp)
  80075e:	89 4d cc             	mov    %ecx,-0x34(%ebp)
  int i, nready = 0;
  fd_set lreadset, lwriteset, lexceptset;
  struct lwip_socket *p_sock;
  
  FD_ZERO(&lreadset);
  800761:	6a 04                	push   $0x4
  800763:	6a 00                	push   $0x0
  800765:	8d 45 e4             	lea    -0x1c(%ebp),%eax
  800768:	50                   	push   %eax
  800769:	e8 9e e7 00 00       	call   80ef0c <memset>
  FD_ZERO(&lwriteset);
  80076e:	83 c4 0c             	add    $0xc,%esp
  800771:	6a 04                	push   $0x4
  800773:	6a 00                	push   $0x0
  800775:	8d 45 e0             	lea    -0x20(%ebp),%eax
  800778:	50                   	push   %eax
  800779:	e8 8e e7 00 00       	call   80ef0c <memset>
  FD_ZERO(&lexceptset);
  80077e:	83 c4 0c             	add    $0xc,%esp
  800781:	6a 04                	push   $0x4
  800783:	6a 00                	push   $0x0
  800785:	8d 45 dc             	lea    -0x24(%ebp),%eax
  800788:	50                   	push   %eax
  800789:	e8 7e e7 00 00       	call   80ef0c <memset>
  
  /* Go through each socket in each list to count number of sockets which
  currently match */
  for(i = 0; i < maxfdp1; i++) {
  80078e:	83 c4 10             	add    $0x10,%esp
  int i, nready = 0;
  800791:	c7 45 c4 00 00 00 00 	movl   $0x0,-0x3c(%ebp)
  for(i = 0; i < maxfdp1; i++) {
  800798:	bf 00 00 00 00       	mov    $0x0,%edi
  80079d:	eb 33                	jmp    8007d2 <lwip_selscan+0x83>
    if (FD_ISSET(i, readset)) {
      /* See if netconn of this socket is ready for read */
      p_sock = get_socket(i);
  80079f:	89 f8                	mov    %edi,%eax
  8007a1:	e8 64 ff ff ff       	call   80070a <get_socket>
      if (p_sock && (p_sock->lastdata || p_sock->rcvevent)) {
  8007a6:	85 c0                	test   %eax,%eax
  8007a8:	74 4c                	je     8007f6 <lwip_selscan+0xa7>
  8007aa:	83 78 04 00          	cmpl   $0x0,0x4(%eax)
  8007ae:	74 16                	je     8007c6 <lwip_selscan+0x77>
        FD_SET(i, &lreadset);
  8007b0:	b8 01 00 00 00       	mov    $0x1,%eax
  8007b5:	89 f1                	mov    %esi,%ecx
  8007b7:	d3 e0                	shl    %cl,%eax
  8007b9:	8b 55 c8             	mov    -0x38(%ebp),%edx
  8007bc:	08 44 15 e4          	or     %al,-0x1c(%ebp,%edx,1)
        LWIP_DEBUGF(SOCKETS_DEBUG, ("lwip_selscan: fd=%d ready for reading\n", i));
        nready++;
  8007c0:	83 45 c4 01          	addl   $0x1,-0x3c(%ebp)
  8007c4:	eb 30                	jmp    8007f6 <lwip_selscan+0xa7>
      if (p_sock && (p_sock->lastdata || p_sock->rcvevent)) {
  8007c6:	66 83 78 0a 00       	cmpw   $0x0,0xa(%eax)
  8007cb:	74 29                	je     8007f6 <lwip_selscan+0xa7>
  8007cd:	eb e1                	jmp    8007b0 <lwip_selscan+0x61>
  for(i = 0; i < maxfdp1; i++) {
  8007cf:	83 c7 01             	add    $0x1,%edi
  8007d2:	3b 7d d4             	cmp    -0x2c(%ebp),%edi
  8007d5:	7d 53                	jge    80082a <lwip_selscan+0xdb>
    if (FD_ISSET(i, readset)) {
  8007d7:	8d 5f 07             	lea    0x7(%edi),%ebx
  8007da:	85 ff                	test   %edi,%edi
  8007dc:	0f 49 df             	cmovns %edi,%ebx
  8007df:	c1 fb 03             	sar    $0x3,%ebx
  8007e2:	89 5d c8             	mov    %ebx,-0x38(%ebp)
  8007e5:	89 fe                	mov    %edi,%esi
  8007e7:	83 e6 07             	and    $0x7,%esi
  8007ea:	8b 45 d0             	mov    -0x30(%ebp),%eax
  8007ed:	0f b6 04 18          	movzbl (%eax,%ebx,1),%eax
  8007f1:	0f a3 f0             	bt     %esi,%eax
  8007f4:	72 a9                	jb     80079f <lwip_selscan+0x50>
      }
    }
    if (FD_ISSET(i, writeset)) {
  8007f6:	8b 45 cc             	mov    -0x34(%ebp),%eax
  8007f9:	0f b6 04 18          	movzbl (%eax,%ebx,1),%eax
  8007fd:	0f a3 f0             	bt     %esi,%eax
  800800:	73 cd                	jae    8007cf <lwip_selscan+0x80>
      /* See if netconn of this socket is ready for write */
      p_sock = get_socket(i);
  800802:	89 f8                	mov    %edi,%eax
  800804:	e8 01 ff ff ff       	call   80070a <get_socket>
      if (p_sock && p_sock->sendevent) {
  800809:	85 c0                	test   %eax,%eax
  80080b:	74 c2                	je     8007cf <lwip_selscan+0x80>
  80080d:	66 83 78 0c 00       	cmpw   $0x0,0xc(%eax)
  800812:	74 bb                	je     8007cf <lwip_selscan+0x80>
        FD_SET(i, &lwriteset);
  800814:	b8 01 00 00 00       	mov    $0x1,%eax
  800819:	89 f1                	mov    %esi,%ecx
  80081b:	d3 e0                	shl    %cl,%eax
  80081d:	8b 55 c8             	mov    -0x38(%ebp),%edx
  800820:	08 44 15 e0          	or     %al,-0x20(%ebp,%edx,1)
        LWIP_DEBUGF(SOCKETS_DEBUG, ("lwip_selscan: fd=%d ready for writing\n", i));
        nready++;
  800824:	83 45 c4 01          	addl   $0x1,-0x3c(%ebp)
  800828:	eb a5                	jmp    8007cf <lwip_selscan+0x80>
      }
    }
  }
  *readset = lreadset;
  80082a:	8b 45 e4             	mov    -0x1c(%ebp),%eax
  80082d:	8b 55 d0             	mov    -0x30(%ebp),%edx
  800830:	89 02                	mov    %eax,(%edx)
  *writeset = lwriteset;
  800832:	8b 45 e0             	mov    -0x20(%ebp),%eax
  800835:	8b 4d cc             	mov    -0x34(%ebp),%ecx
  800838:	89 01                	mov    %eax,(%ecx)
  FD_ZERO(exceptset);
  80083a:	83 ec 04             	sub    $0x4,%esp
  80083d:	6a 04                	push   $0x4
  80083f:	6a 00                	push   $0x0
  800841:	ff 75 08             	pushl  0x8(%ebp)
  800844:	e8 c3 e6 00 00       	call   80ef0c <memset>
  
  return nready;
}
  800849:	8b 45 c4             	mov    -0x3c(%ebp),%eax
  80084c:	8d 65 f4             	lea    -0xc(%ebp),%esp
  80084f:	5b                   	pop    %ebx
  800850:	5e                   	pop    %esi
  800851:	5f                   	pop    %edi
  800852:	5d                   	pop    %ebp
  800853:	c3                   	ret    

00800854 <lwip_getaddrname>:
  return lwip_close(s); /* XXX temporary hack until proper implementation */
}

static int
lwip_getaddrname(int s, struct sockaddr *name, socklen_t *namelen, u8_t local)
{
  800854:	55                   	push   %ebp
  800855:	89 e5                	mov    %esp,%ebp
  800857:	57                   	push   %edi
  800858:	56                   	push   %esi
  800859:	53                   	push   %ebx
  80085a:	83 ec 3c             	sub    $0x3c,%esp
  80085d:	89 55 c4             	mov    %edx,-0x3c(%ebp)
  800860:	89 cf                	mov    %ecx,%edi
  800862:	8b 75 08             	mov    0x8(%ebp),%esi
  struct lwip_socket *sock;
  struct sockaddr_in sin;
  struct ip_addr naddr;

  sock = get_socket(s);
  800865:	e8 a0 fe ff ff       	call   80070a <get_socket>
  if (!sock)
  80086a:	85 c0                	test   %eax,%eax
  80086c:	0f 84 86 00 00 00    	je     8008f8 <lwip_getaddrname+0xa4>
  800872:	89 c3                	mov    %eax,%ebx
    return -1;

  memset(&sin, 0, sizeof(sin));
  800874:	83 ec 04             	sub    $0x4,%esp
  800877:	6a 10                	push   $0x10
  800879:	6a 00                	push   $0x0
  80087b:	8d 45 d8             	lea    -0x28(%ebp),%eax
  80087e:	50                   	push   %eax
  80087f:	e8 88 e6 00 00       	call   80ef0c <memset>
  sin.sin_len = sizeof(sin);
  800884:	c6 45 d8 10          	movb   $0x10,-0x28(%ebp)
  sin.sin_family = AF_INET;
  800888:	c6 45 d9 02          	movb   $0x2,-0x27(%ebp)

  /* get the IP address and port */
  netconn_getaddr(sock->conn, &naddr, &sin.sin_port, local);
  80088c:	89 f0                	mov    %esi,%eax
  80088e:	0f b6 f0             	movzbl %al,%esi
  800891:	56                   	push   %esi
  800892:	8d 45 da             	lea    -0x26(%ebp),%eax
  800895:	50                   	push   %eax
  800896:	8d 45 d4             	lea    -0x2c(%ebp),%eax
  800899:	50                   	push   %eax
  80089a:	ff 33                	pushl  (%ebx)
  80089c:	e8 16 a5 00 00       	call   80adb7 <netconn_getaddr>

  LWIP_DEBUGF(SOCKETS_DEBUG, ("lwip_getaddrname(%d, addr=", s));
  //ip_addr_debug_print(SOCKETS_DEBUG, &naddr);
  LWIP_DEBUGF(SOCKETS_DEBUG, (" port=%d)\n", sin.sin_port));

  sin.sin_port = htons(sin.sin_port);
  8008a1:	83 c4 14             	add    $0x14,%esp
  8008a4:	0f b7 45 da          	movzwl -0x26(%ebp),%eax
  8008a8:	50                   	push   %eax
  8008a9:	e8 d4 6e 00 00       	call   807782 <htons>
  8008ae:	66 89 45 da          	mov    %ax,-0x26(%ebp)
  sin.sin_addr.s_addr = naddr.addr;
  8008b2:	8b 45 d4             	mov    -0x2c(%ebp),%eax
  8008b5:	89 45 dc             	mov    %eax,-0x24(%ebp)

  if (*namelen > sizeof(sin))
  8008b8:	83 c4 10             	add    $0x10,%esp
  8008bb:	83 3f 10             	cmpl   $0x10,(%edi)
  8008be:	76 06                	jbe    8008c6 <lwip_getaddrname+0x72>
    *namelen = sizeof(sin);
  8008c0:	c7 07 10 00 00 00    	movl   $0x10,(%edi)

  SMEMCPY(name, &sin, *namelen);
  8008c6:	83 ec 04             	sub    $0x4,%esp
  8008c9:	ff 37                	pushl  (%edi)
  8008cb:	8d 45 d8             	lea    -0x28(%ebp),%eax
  8008ce:	50                   	push   %eax
  8008cf:	ff 75 c4             	pushl  -0x3c(%ebp)
  8008d2:	e8 ea e6 00 00       	call   80efc1 <memcpy>
  sock_set_errno(sock, 0);
  8008d7:	c7 43 10 00 00 00 00 	movl   $0x0,0x10(%ebx)
  8008de:	c7 05 e0 b1 b3 00 00 	movl   $0x0,0xb3b1e0
  8008e5:	00 00 00 
  return 0;
  8008e8:	83 c4 10             	add    $0x10,%esp
  8008eb:	b8 00 00 00 00       	mov    $0x0,%eax
}
  8008f0:	8d 65 f4             	lea    -0xc(%ebp),%esp
  8008f3:	5b                   	pop    %ebx
  8008f4:	5e                   	pop    %esi
  8008f5:	5f                   	pop    %edi
  8008f6:	5d                   	pop    %ebp
  8008f7:	c3                   	ret    
    return -1;
  8008f8:	b8 ff ff ff ff       	mov    $0xffffffff,%eax
  8008fd:	eb f1                	jmp    8008f0 <lwip_getaddrname+0x9c>

008008ff <event_callback>:
{
  8008ff:	55                   	push   %ebp
  800900:	89 e5                	mov    %esp,%ebp
  800902:	57                   	push   %edi
  800903:	56                   	push   %esi
  800904:	53                   	push   %ebx
  800905:	83 ec 1c             	sub    $0x1c,%esp
  800908:	8b 75 08             	mov    0x8(%ebp),%esi
  if (conn) {
  80090b:	85 f6                	test   %esi,%esi
  80090d:	0f 84 95 01 00 00    	je     800aa8 <event_callback+0x1a9>
    s = conn->socket;
  800913:	8b 5e 1c             	mov    0x1c(%esi),%ebx
    if (s < 0) {
  800916:	85 db                	test   %ebx,%ebx
  800918:	78 52                	js     80096c <event_callback+0x6d>
    sock = get_socket(s);
  80091a:	89 d8                	mov    %ebx,%eax
  80091c:	e8 e9 fd ff ff       	call   80070a <get_socket>
  800921:	89 45 e4             	mov    %eax,-0x1c(%ebp)
    if (!sock) {
  800924:	85 c0                	test   %eax,%eax
  800926:	0f 84 7c 01 00 00    	je     800aa8 <event_callback+0x1a9>
  sys_sem_wait(selectsem);
  80092c:	83 ec 0c             	sub    $0xc,%esp
  80092f:	ff 35 40 50 81 00    	pushl  0x815040
  800935:	e8 01 48 00 00       	call   80513b <sys_sem_wait>
  switch (evt) {
  80093a:	83 c4 10             	add    $0x10,%esp
  80093d:	83 7d 0c 01          	cmpl   $0x1,0xc(%ebp)
  800941:	0f 84 aa 00 00 00    	je     8009f1 <event_callback+0xf2>
  800947:	83 7d 0c 01          	cmpl   $0x1,0xc(%ebp)
  80094b:	72 6f                	jb     8009bc <event_callback+0xbd>
  80094d:	83 7d 0c 02          	cmpl   $0x2,0xc(%ebp)
  800951:	0f 84 a4 00 00 00    	je     8009fb <event_callback+0xfc>
  800957:	83 7d 0c 03          	cmpl   $0x3,0xc(%ebp)
  80095b:	0f 85 a5 00 00 00    	jne    800a06 <event_callback+0x107>
      sock->sendevent = 0;
  800961:	8b 45 e4             	mov    -0x1c(%ebp),%eax
  800964:	66 c7 40 0c 00 00    	movw   $0x0,0xc(%eax)
      break;
  80096a:	eb 58                	jmp    8009c4 <event_callback+0xc5>
      sys_sem_wait(socksem);
  80096c:	83 ec 0c             	sub    $0xc,%esp
  80096f:	ff 35 44 50 81 00    	pushl  0x815044
  800975:	e8 c1 47 00 00       	call   80513b <sys_sem_wait>
      if (conn->socket < 0) {
  80097a:	8b 46 1c             	mov    0x1c(%esi),%eax
  80097d:	83 c4 10             	add    $0x10,%esp
  800980:	85 c0                	test   %eax,%eax
  800982:	79 22                	jns    8009a6 <event_callback+0xa7>
        if (evt == NETCONN_EVT_RCVPLUS) {
  800984:	83 7d 0c 00          	cmpl   $0x0,0xc(%ebp)
  800988:	75 06                	jne    800990 <event_callback+0x91>
          conn->socket--;
  80098a:	83 e8 01             	sub    $0x1,%eax
  80098d:	89 46 1c             	mov    %eax,0x1c(%esi)
        sys_sem_signal(socksem);
  800990:	83 ec 0c             	sub    $0xc,%esp
  800993:	ff 35 44 50 81 00    	pushl  0x815044
  800999:	e8 86 97 00 00       	call   80a124 <sys_sem_signal>
        return;
  80099e:	83 c4 10             	add    $0x10,%esp
  8009a1:	e9 02 01 00 00       	jmp    800aa8 <event_callback+0x1a9>
      sys_sem_signal(socksem);
  8009a6:	83 ec 0c             	sub    $0xc,%esp
  8009a9:	ff 35 44 50 81 00    	pushl  0x815044
  8009af:	e8 70 97 00 00       	call   80a124 <sys_sem_signal>
  8009b4:	83 c4 10             	add    $0x10,%esp
  8009b7:	e9 5e ff ff ff       	jmp    80091a <event_callback+0x1b>
      sock->rcvevent++;
  8009bc:	8b 45 e4             	mov    -0x1c(%ebp),%eax
  8009bf:	66 83 40 0a 01       	addw   $0x1,0xa(%eax)
  sys_sem_signal(selectsem);
  8009c4:	83 ec 0c             	sub    $0xc,%esp
  8009c7:	ff 35 40 50 81 00    	pushl  0x815040
  8009cd:	e8 52 97 00 00       	call   80a124 <sys_sem_signal>
        if (scb->readset && FD_ISSET(s, scb->readset))
  8009d2:	8d 73 07             	lea    0x7(%ebx),%esi
  8009d5:	83 c4 10             	add    $0x10,%esp
  8009d8:	85 db                	test   %ebx,%ebx
  8009da:	0f 49 f3             	cmovns %ebx,%esi
  8009dd:	c1 fe 03             	sar    $0x3,%esi
  8009e0:	89 d9                	mov    %ebx,%ecx
  8009e2:	83 e1 07             	and    $0x7,%ecx
  8009e5:	bf 01 00 00 00       	mov    $0x1,%edi
  8009ea:	d3 e7                	shl    %cl,%edi
  8009ec:	e9 8d 00 00 00       	jmp    800a7e <event_callback+0x17f>
      sock->rcvevent--;
  8009f1:	8b 45 e4             	mov    -0x1c(%ebp),%eax
  8009f4:	66 83 68 0a 01       	subw   $0x1,0xa(%eax)
      break;
  8009f9:	eb c9                	jmp    8009c4 <event_callback+0xc5>
      sock->sendevent = 1;
  8009fb:	8b 45 e4             	mov    -0x1c(%ebp),%eax
  8009fe:	66 c7 40 0c 01 00    	movw   $0x1,0xc(%eax)
      break;
  800a04:	eb be                	jmp    8009c4 <event_callback+0xc5>
      LWIP_ASSERT("unknown event", 0);
  800a06:	83 ec 04             	sub    $0x4,%esp
  800a09:	68 82 11 81 00       	push   $0x811182
  800a0e:	68 17 04 00 00       	push   $0x417
  800a13:	68 90 11 81 00       	push   $0x811190
  800a18:	e8 36 dc 00 00       	call   80e653 <_panic>
    for (scb = select_cb_list; scb; scb = scb->next) {
  800a1d:	8b 1b                	mov    (%ebx),%ebx
  800a1f:	85 db                	test   %ebx,%ebx
  800a21:	74 74                	je     800a97 <event_callback+0x198>
      if (scb->sem_signalled == 0) {
  800a23:	83 7b 10 00          	cmpl   $0x0,0x10(%ebx)
  800a27:	75 f4                	jne    800a1d <event_callback+0x11e>
        if (scb->readset && FD_ISSET(s, scb->readset))
  800a29:	8b 43 04             	mov    0x4(%ebx),%eax
  800a2c:	85 c0                	test   %eax,%eax
  800a2e:	74 12                	je     800a42 <event_callback+0x143>
  800a30:	0f b6 04 30          	movzbl (%eax,%esi,1),%eax
  800a34:	85 f8                	test   %edi,%eax
  800a36:	74 0a                	je     800a42 <event_callback+0x143>
          if (sock->rcvevent)
  800a38:	8b 45 e4             	mov    -0x1c(%ebp),%eax
  800a3b:	66 83 78 0a 00       	cmpw   $0x0,0xa(%eax)
  800a40:	75 19                	jne    800a5b <event_callback+0x15c>
        if (scb->writeset && FD_ISSET(s, scb->writeset))
  800a42:	8b 43 08             	mov    0x8(%ebx),%eax
  800a45:	85 c0                	test   %eax,%eax
  800a47:	74 d4                	je     800a1d <event_callback+0x11e>
  800a49:	0f b6 04 30          	movzbl (%eax,%esi,1),%eax
  800a4d:	85 f8                	test   %edi,%eax
  800a4f:	74 cc                	je     800a1d <event_callback+0x11e>
          if (sock->sendevent)
  800a51:	8b 45 e4             	mov    -0x1c(%ebp),%eax
  800a54:	66 83 78 0c 00       	cmpw   $0x0,0xc(%eax)
  800a59:	74 c2                	je     800a1d <event_callback+0x11e>
      scb->sem_signalled = 1;
  800a5b:	c7 43 10 01 00 00 00 	movl   $0x1,0x10(%ebx)
      sys_sem_signal(selectsem);
  800a62:	83 ec 0c             	sub    $0xc,%esp
  800a65:	ff 35 40 50 81 00    	pushl  0x815040
  800a6b:	e8 b4 96 00 00       	call   80a124 <sys_sem_signal>
      sys_sem_signal(scb->sem);
  800a70:	83 c4 04             	add    $0x4,%esp
  800a73:	ff 73 14             	pushl  0x14(%ebx)
  800a76:	e8 a9 96 00 00       	call   80a124 <sys_sem_signal>
    sys_sem_wait(selectsem);
  800a7b:	83 c4 10             	add    $0x10,%esp
  800a7e:	83 ec 0c             	sub    $0xc,%esp
  800a81:	ff 35 40 50 81 00    	pushl  0x815040
  800a87:	e8 af 46 00 00       	call   80513b <sys_sem_wait>
    for (scb = select_cb_list; scb; scb = scb->next) {
  800a8c:	8b 1d 48 50 81 00    	mov    0x815048,%ebx
  800a92:	83 c4 10             	add    $0x10,%esp
  800a95:	eb 88                	jmp    800a1f <event_callback+0x120>
      sys_sem_signal(selectsem);
  800a97:	83 ec 0c             	sub    $0xc,%esp
  800a9a:	ff 35 40 50 81 00    	pushl  0x815040
  800aa0:	e8 7f 96 00 00       	call   80a124 <sys_sem_signal>
      break;
  800aa5:	83 c4 10             	add    $0x10,%esp
}
  800aa8:	8d 65 f4             	lea    -0xc(%ebp),%esp
  800aab:	5b                   	pop    %ebx
  800aac:	5e                   	pop    %esi
  800aad:	5f                   	pop    %edi
  800aae:	5d                   	pop    %ebp
  800aaf:	c3                   	ret    

00800ab0 <alloc_socket>:
{
  800ab0:	55                   	push   %ebp
  800ab1:	89 e5                	mov    %esp,%ebp
  800ab3:	56                   	push   %esi
  800ab4:	53                   	push   %ebx
  800ab5:	89 c6                	mov    %eax,%esi
  sys_sem_wait(socksem);
  800ab7:	83 ec 0c             	sub    $0xc,%esp
  800aba:	ff 35 44 50 81 00    	pushl  0x815044
  800ac0:	e8 76 46 00 00       	call   80513b <sys_sem_wait>
  800ac5:	b8 60 50 81 00       	mov    $0x815060,%eax
  800aca:	83 c4 10             	add    $0x10,%esp
  for (i = 0; i < NUM_SOCKETS; ++i) {
  800acd:	bb 00 00 00 00       	mov    $0x0,%ebx
    if (!sockets[i].conn) {
  800ad2:	83 38 00             	cmpl   $0x0,(%eax)
  800ad5:	74 23                	je     800afa <alloc_socket+0x4a>
  for (i = 0; i < NUM_SOCKETS; ++i) {
  800ad7:	83 c3 01             	add    $0x1,%ebx
  800ada:	83 c0 14             	add    $0x14,%eax
  800add:	83 fb 20             	cmp    $0x20,%ebx
  800ae0:	75 f0                	jne    800ad2 <alloc_socket+0x22>
  sys_sem_signal(socksem);
  800ae2:	83 ec 0c             	sub    $0xc,%esp
  800ae5:	ff 35 44 50 81 00    	pushl  0x815044
  800aeb:	e8 34 96 00 00       	call   80a124 <sys_sem_signal>
  return -1;
  800af0:	83 c4 10             	add    $0x10,%esp
  800af3:	bb ff ff ff ff       	mov    $0xffffffff,%ebx
  800af8:	eb 55                	jmp    800b4f <alloc_socket+0x9f>
      sockets[i].conn       = newconn;
  800afa:	8d 14 9b             	lea    (%ebx,%ebx,4),%edx
  800afd:	c1 e2 02             	shl    $0x2,%edx
  800b00:	89 b2 60 50 81 00    	mov    %esi,0x815060(%edx)
      sockets[i].lastdata   = NULL;
  800b06:	c7 82 64 50 81 00 00 	movl   $0x0,0x815064(%edx)
  800b0d:	00 00 00 
      sockets[i].lastoffset = 0;
  800b10:	66 c7 82 68 50 81 00 	movw   $0x0,0x815068(%edx)
  800b17:	00 00 
      sockets[i].rcvevent   = 0;
  800b19:	66 c7 82 6a 50 81 00 	movw   $0x0,0x81506a(%edx)
  800b20:	00 00 
      sockets[i].sendevent  = 1; /* TCP send buf is empty */
  800b22:	66 c7 82 6c 50 81 00 	movw   $0x1,0x81506c(%edx)
  800b29:	01 00 
      sockets[i].flags      = 0;
  800b2b:	66 c7 82 6e 50 81 00 	movw   $0x0,0x81506e(%edx)
  800b32:	00 00 
      sockets[i].err        = 0;
  800b34:	c7 82 70 50 81 00 00 	movl   $0x0,0x815070(%edx)
  800b3b:	00 00 00 
      sys_sem_signal(socksem);
  800b3e:	83 ec 0c             	sub    $0xc,%esp
  800b41:	ff 35 44 50 81 00    	pushl  0x815044
  800b47:	e8 d8 95 00 00       	call   80a124 <sys_sem_signal>
      return i;
  800b4c:	83 c4 10             	add    $0x10,%esp
}
  800b4f:	89 d8                	mov    %ebx,%eax
  800b51:	8d 65 f8             	lea    -0x8(%ebp),%esp
  800b54:	5b                   	pop    %ebx
  800b55:	5e                   	pop    %esi
  800b56:	5d                   	pop    %ebp
  800b57:	c3                   	ret    

00800b58 <lwip_getsockopt_internal>:
  return err ? -1 : 0;
}

static void
lwip_getsockopt_internal(void *arg)
{
  800b58:	55                   	push   %ebp
  800b59:	89 e5                	mov    %esp,%ebp
  800b5b:	53                   	push   %ebx
  800b5c:	83 ec 04             	sub    $0x4,%esp
  800b5f:	8b 45 08             	mov    0x8(%ebp),%eax
#endif /* LWIP_DEBUG */
  int level, optname;
  void *optval;
  struct lwip_setgetsockopt_data *data;

  LWIP_ASSERT("arg != NULL", arg != NULL);
  800b62:	85 c0                	test   %eax,%eax
  800b64:	74 38                	je     800b9e <lwip_getsockopt_internal+0x46>

  data = (struct lwip_setgetsockopt_data*)arg;
  sock = data->sock;
  800b66:	8b 08                	mov    (%eax),%ecx
#ifdef LWIP_DEBUG
  s = data->s;
#endif /* LWIP_DEBUG */
  level = data->level;
  optname = data->optname;
  800b68:	8b 50 0c             	mov    0xc(%eax),%edx
  optval = data->optval;
  800b6b:	8b 58 10             	mov    0x10(%eax),%ebx

  switch (level) {
  800b6e:	8b 40 08             	mov    0x8(%eax),%eax
  800b71:	83 f8 06             	cmp    $0x6,%eax
  800b74:	0f 84 39 01 00 00    	je     800cb3 <lwip_getsockopt_internal+0x15b>
  800b7a:	3d ff 0f 00 00       	cmp    $0xfff,%eax
  800b7f:	74 34                	je     800bb5 <lwip_getsockopt_internal+0x5d>
  800b81:	85 c0                	test   %eax,%eax
  800b83:	0f 84 fc 00 00 00    	je     800c85 <lwip_getsockopt_internal+0x12d>
      break;
    }  /* switch (optname) */
    break;
#endif /* LWIP_UDP */
  } /* switch (level) */
  sys_sem_signal(sock->conn->op_completed);
  800b89:	83 ec 0c             	sub    $0xc,%esp
  800b8c:	8b 01                	mov    (%ecx),%eax
  800b8e:	ff 70 10             	pushl  0x10(%eax)
  800b91:	e8 8e 95 00 00       	call   80a124 <sys_sem_signal>
}
  800b96:	83 c4 10             	add    $0x10,%esp
  800b99:	8b 5d fc             	mov    -0x4(%ebp),%ebx
  800b9c:	c9                   	leave  
  800b9d:	c3                   	ret    
  LWIP_ASSERT("arg != NULL", arg != NULL);
  800b9e:	83 ec 04             	sub    $0x4,%esp
  800ba1:	68 a7 11 81 00       	push   $0x8111a7
  800ba6:	68 38 05 00 00       	push   $0x538
  800bab:	68 90 11 81 00       	push   $0x811190
  800bb0:	e8 9e da 00 00       	call   80e653 <_panic>
    switch (optname) {
  800bb5:	83 fa 20             	cmp    $0x20,%edx
  800bb8:	74 68                	je     800c22 <lwip_getsockopt_internal+0xca>
  800bba:	83 fa 20             	cmp    $0x20,%edx
  800bbd:	7e 55                	jle    800c14 <lwip_getsockopt_internal+0xbc>
  800bbf:	81 fa 08 10 00 00    	cmp    $0x1008,%edx
  800bc5:	74 6d                	je     800c34 <lwip_getsockopt_internal+0xdc>
  800bc7:	81 fa 0a 10 00 00    	cmp    $0x100a,%edx
  800bcd:	0f 84 9f 00 00 00    	je     800c72 <lwip_getsockopt_internal+0x11a>
  800bd3:	81 fa 07 10 00 00    	cmp    $0x1007,%edx
  800bd9:	75 ae                	jne    800b89 <lwip_getsockopt_internal+0x31>
      if (sock->err == 0) {
  800bdb:	83 79 10 00          	cmpl   $0x0,0x10(%ecx)
  800bdf:	75 22                	jne    800c03 <lwip_getsockopt_internal+0xab>
        sock_set_errno(sock, err_to_errno(sock->conn->err));
  800be1:	8b 01                	mov    (%ecx),%eax
  800be3:	0f be 40 0c          	movsbl 0xc(%eax),%eax
  800be7:	f7 d8                	neg    %eax
  800be9:	ba 05 00 00 00       	mov    $0x5,%edx
  800bee:	83 f8 0e             	cmp    $0xe,%eax
  800bf1:	77 07                	ja     800bfa <lwip_getsockopt_internal+0xa2>
  800bf3:	8b 14 85 60 12 81 00 	mov    0x811260(,%eax,4),%edx
  800bfa:	89 51 10             	mov    %edx,0x10(%ecx)
  800bfd:	89 15 e0 b1 b3 00    	mov    %edx,0xb3b1e0
      *(int *)optval = sock->err;
  800c03:	8b 41 10             	mov    0x10(%ecx),%eax
  800c06:	89 03                	mov    %eax,(%ebx)
      sock->err = 0;
  800c08:	c7 41 10 00 00 00 00 	movl   $0x0,0x10(%ecx)
      break;
  800c0f:	e9 75 ff ff ff       	jmp    800b89 <lwip_getsockopt_internal+0x31>
    switch (optname) {
  800c14:	83 fa 02             	cmp    $0x2,%edx
  800c17:	74 09                	je     800c22 <lwip_getsockopt_internal+0xca>
  800c19:	83 fa 08             	cmp    $0x8,%edx
  800c1c:	0f 85 67 ff ff ff    	jne    800b89 <lwip_getsockopt_internal+0x31>
      *(int*)optval = sock->conn->pcb.ip->so_options & optname;
  800c22:	8b 01                	mov    (%ecx),%eax
  800c24:	8b 40 08             	mov    0x8(%eax),%eax
  800c27:	0f b7 40 08          	movzwl 0x8(%eax),%eax
  800c2b:	21 c2                	and    %eax,%edx
  800c2d:	89 13                	mov    %edx,(%ebx)
      break;
  800c2f:	e9 55 ff ff ff       	jmp    800b89 <lwip_getsockopt_internal+0x31>
      switch (NETCONNTYPE_GROUP(sock->conn->type)) {
  800c34:	8b 01                	mov    (%ecx),%eax
  800c36:	8b 00                	mov    (%eax),%eax
  800c38:	89 c2                	mov    %eax,%edx
  800c3a:	81 e2 f0 00 00 00    	and    $0xf0,%edx
  800c40:	83 fa 20             	cmp    $0x20,%edx
  800c43:	74 22                	je     800c67 <lwip_getsockopt_internal+0x10f>
  800c45:	83 fa 40             	cmp    $0x40,%edx
  800c48:	74 12                	je     800c5c <lwip_getsockopt_internal+0x104>
        *(int*)optval = sock->conn->type;
  800c4a:	83 fa 10             	cmp    $0x10,%edx
  800c4d:	ba 01 00 00 00       	mov    $0x1,%edx
  800c52:	0f 44 c2             	cmove  %edx,%eax
  800c55:	89 03                	mov    %eax,(%ebx)
  800c57:	e9 2d ff ff ff       	jmp    800b89 <lwip_getsockopt_internal+0x31>
        *(int*)optval = SOCK_RAW;
  800c5c:	c7 03 03 00 00 00    	movl   $0x3,(%ebx)
        break;
  800c62:	e9 22 ff ff ff       	jmp    800b89 <lwip_getsockopt_internal+0x31>
        *(int*)optval = SOCK_DGRAM;
  800c67:	c7 03 02 00 00 00    	movl   $0x2,(%ebx)
        break;
  800c6d:	e9 17 ff ff ff       	jmp    800b89 <lwip_getsockopt_internal+0x31>
      *(int*)optval = (udp_flags(sock->conn->pcb.udp) & UDP_FLAGS_NOCHKSUM) ? 1 : 0;
  800c72:	8b 01                	mov    (%ecx),%eax
  800c74:	8b 40 08             	mov    0x8(%eax),%eax
  800c77:	0f b6 40 10          	movzbl 0x10(%eax),%eax
  800c7b:	83 e0 01             	and    $0x1,%eax
  800c7e:	89 03                	mov    %eax,(%ebx)
      break;
  800c80:	e9 04 ff ff ff       	jmp    800b89 <lwip_getsockopt_internal+0x31>
    switch (optname) {
  800c85:	83 fa 01             	cmp    $0x1,%edx
  800c88:	74 19                	je     800ca3 <lwip_getsockopt_internal+0x14b>
  800c8a:	83 fa 02             	cmp    $0x2,%edx
  800c8d:	0f 85 f6 fe ff ff    	jne    800b89 <lwip_getsockopt_internal+0x31>
      *(int*)optval = sock->conn->pcb.ip->ttl;
  800c93:	8b 01                	mov    (%ecx),%eax
  800c95:	8b 40 08             	mov    0x8(%eax),%eax
  800c98:	0f b6 40 0b          	movzbl 0xb(%eax),%eax
  800c9c:	89 03                	mov    %eax,(%ebx)
      break;
  800c9e:	e9 e6 fe ff ff       	jmp    800b89 <lwip_getsockopt_internal+0x31>
      *(int*)optval = sock->conn->pcb.ip->tos;
  800ca3:	8b 01                	mov    (%ecx),%eax
  800ca5:	8b 40 08             	mov    0x8(%eax),%eax
  800ca8:	0f b6 40 0a          	movzbl 0xa(%eax),%eax
  800cac:	89 03                	mov    %eax,(%ebx)
      break;
  800cae:	e9 d6 fe ff ff       	jmp    800b89 <lwip_getsockopt_internal+0x31>
    switch (optname) {
  800cb3:	83 fa 01             	cmp    $0x1,%edx
  800cb6:	74 1b                	je     800cd3 <lwip_getsockopt_internal+0x17b>
  800cb8:	83 fa 02             	cmp    $0x2,%edx
  800cbb:	0f 85 c8 fe ff ff    	jne    800b89 <lwip_getsockopt_internal+0x31>
      *(int*)optval = (int)sock->conn->pcb.tcp->keep_idle;
  800cc1:	8b 01                	mov    (%ecx),%eax
  800cc3:	8b 40 08             	mov    0x8(%eax),%eax
  800cc6:	8b 80 9c 00 00 00    	mov    0x9c(%eax),%eax
  800ccc:	89 03                	mov    %eax,(%ebx)
      break;
  800cce:	e9 b6 fe ff ff       	jmp    800b89 <lwip_getsockopt_internal+0x31>
      *(int*)optval = (sock->conn->pcb.tcp->flags & TF_NODELAY);
  800cd3:	8b 01                	mov    (%ecx),%eax
  800cd5:	8b 40 08             	mov    0x8(%eax),%eax
  800cd8:	0f b6 40 20          	movzbl 0x20(%eax),%eax
  800cdc:	83 e0 40             	and    $0x40,%eax
  800cdf:	0f b6 c0             	movzbl %al,%eax
  800ce2:	89 03                	mov    %eax,(%ebx)
      break;
  800ce4:	e9 a0 fe ff ff       	jmp    800b89 <lwip_getsockopt_internal+0x31>

00800ce9 <lwip_setsockopt_internal>:
  return err ? -1 : 0;
}

static void
lwip_setsockopt_internal(void *arg)
{
  800ce9:	55                   	push   %ebp
  800cea:	89 e5                	mov    %esp,%ebp
  800cec:	53                   	push   %ebx
  800ced:	83 ec 04             	sub    $0x4,%esp
  800cf0:	8b 45 08             	mov    0x8(%ebp),%eax
#endif /* LWIP_DEBUG */
  int level, optname;
  const void *optval;
  struct lwip_setgetsockopt_data *data;

  LWIP_ASSERT("arg != NULL", arg != NULL);
  800cf3:	85 c0                	test   %eax,%eax
  800cf5:	74 34                	je     800d2b <lwip_setsockopt_internal+0x42>

  data = (struct lwip_setgetsockopt_data*)arg;
  sock = data->sock;
  800cf7:	8b 08                	mov    (%eax),%ecx
#ifdef LWIP_DEBUG
  s = data->s;
#endif /* LWIP_DEBUG */
  level = data->level;
  optname = data->optname;
  800cf9:	8b 50 0c             	mov    0xc(%eax),%edx
  optval = data->optval;
  800cfc:	8b 58 10             	mov    0x10(%eax),%ebx

  switch (level) {
  800cff:	8b 40 08             	mov    0x8(%eax),%eax
  800d02:	83 f8 06             	cmp    $0x6,%eax
  800d05:	0f 84 a9 00 00 00    	je     800db4 <lwip_setsockopt_internal+0xcb>
  800d0b:	3d ff 0f 00 00       	cmp    $0xfff,%eax
  800d10:	74 30                	je     800d42 <lwip_setsockopt_internal+0x59>
  800d12:	85 c0                	test   %eax,%eax
  800d14:	74 76                	je     800d8c <lwip_setsockopt_internal+0xa3>
      break;
    }  /* switch (optname) */
    break;
#endif /* LWIP_UDP */
  }  /* switch (level) */
  sys_sem_signal(sock->conn->op_completed);
  800d16:	83 ec 0c             	sub    $0xc,%esp
  800d19:	8b 01                	mov    (%ecx),%eax
  800d1b:	ff 70 10             	pushl  0x10(%eax)
  800d1e:	e8 01 94 00 00       	call   80a124 <sys_sem_signal>
}
  800d23:	83 c4 10             	add    $0x10,%esp
  800d26:	8b 5d fc             	mov    -0x4(%ebp),%ebx
  800d29:	c9                   	leave  
  800d2a:	c3                   	ret    
  LWIP_ASSERT("arg != NULL", arg != NULL);
  800d2b:	83 ec 04             	sub    $0x4,%esp
  800d2e:	68 a7 11 81 00       	push   $0x8111a7
  800d33:	68 ae 06 00 00       	push   $0x6ae
  800d38:	68 90 11 81 00       	push   $0x811190
  800d3d:	e8 11 d9 00 00       	call   80e653 <_panic>
    switch (optname) {
  800d42:	83 fa 20             	cmp    $0x20,%edx
  800d45:	74 0d                	je     800d54 <lwip_setsockopt_internal+0x6b>
  800d47:	81 fa 0a 10 00 00    	cmp    $0x100a,%edx
  800d4d:	74 22                	je     800d71 <lwip_setsockopt_internal+0x88>
  800d4f:	83 fa 08             	cmp    $0x8,%edx
  800d52:	75 c2                	jne    800d16 <lwip_setsockopt_internal+0x2d>
      if (*(int*)optval) {
  800d54:	83 3b 00             	cmpl   $0x0,(%ebx)
  800d57:	74 0b                	je     800d64 <lwip_setsockopt_internal+0x7b>
        sock->conn->pcb.ip->so_options |= optname;
  800d59:	8b 01                	mov    (%ecx),%eax
  800d5b:	8b 40 08             	mov    0x8(%eax),%eax
  800d5e:	66 09 50 08          	or     %dx,0x8(%eax)
  800d62:	eb b2                	jmp    800d16 <lwip_setsockopt_internal+0x2d>
        sock->conn->pcb.ip->so_options &= ~optname;
  800d64:	8b 01                	mov    (%ecx),%eax
  800d66:	8b 40 08             	mov    0x8(%eax),%eax
  800d69:	f7 d2                	not    %edx
  800d6b:	66 21 50 08          	and    %dx,0x8(%eax)
  800d6f:	eb a5                	jmp    800d16 <lwip_setsockopt_internal+0x2d>
      if (*(int*)optval) {
  800d71:	83 3b 00             	cmpl   $0x0,(%ebx)
  800d74:	74 0b                	je     800d81 <lwip_setsockopt_internal+0x98>
        udp_setflags(sock->conn->pcb.udp, udp_flags(sock->conn->pcb.udp) | UDP_FLAGS_NOCHKSUM);
  800d76:	8b 01                	mov    (%ecx),%eax
  800d78:	8b 40 08             	mov    0x8(%eax),%eax
  800d7b:	80 48 10 01          	orb    $0x1,0x10(%eax)
  800d7f:	eb 95                	jmp    800d16 <lwip_setsockopt_internal+0x2d>
        udp_setflags(sock->conn->pcb.udp, udp_flags(sock->conn->pcb.udp) & ~UDP_FLAGS_NOCHKSUM);
  800d81:	8b 01                	mov    (%ecx),%eax
  800d83:	8b 40 08             	mov    0x8(%eax),%eax
  800d86:	80 60 10 fe          	andb   $0xfe,0x10(%eax)
  800d8a:	eb 8a                	jmp    800d16 <lwip_setsockopt_internal+0x2d>
    switch (optname) {
  800d8c:	83 fa 01             	cmp    $0x1,%edx
  800d8f:	74 14                	je     800da5 <lwip_setsockopt_internal+0xbc>
  800d91:	83 fa 02             	cmp    $0x2,%edx
  800d94:	75 80                	jne    800d16 <lwip_setsockopt_internal+0x2d>
      sock->conn->pcb.ip->ttl = (u8_t)(*(int*)optval);
  800d96:	8b 01                	mov    (%ecx),%eax
  800d98:	8b 40 08             	mov    0x8(%eax),%eax
  800d9b:	8b 13                	mov    (%ebx),%edx
  800d9d:	88 50 0b             	mov    %dl,0xb(%eax)
      break;
  800da0:	e9 71 ff ff ff       	jmp    800d16 <lwip_setsockopt_internal+0x2d>
      sock->conn->pcb.ip->tos = (u8_t)(*(int*)optval);
  800da5:	8b 01                	mov    (%ecx),%eax
  800da7:	8b 40 08             	mov    0x8(%eax),%eax
  800daa:	8b 13                	mov    (%ebx),%edx
  800dac:	88 50 0a             	mov    %dl,0xa(%eax)
      break;
  800daf:	e9 62 ff ff ff       	jmp    800d16 <lwip_setsockopt_internal+0x2d>
    switch (optname) {
  800db4:	83 fa 01             	cmp    $0x1,%edx
  800db7:	74 1b                	je     800dd4 <lwip_setsockopt_internal+0xeb>
  800db9:	83 fa 02             	cmp    $0x2,%edx
  800dbc:	0f 85 54 ff ff ff    	jne    800d16 <lwip_setsockopt_internal+0x2d>
      sock->conn->pcb.tcp->keep_idle = (u32_t)(*(int*)optval);
  800dc2:	8b 01                	mov    (%ecx),%eax
  800dc4:	8b 40 08             	mov    0x8(%eax),%eax
  800dc7:	8b 13                	mov    (%ebx),%edx
  800dc9:	89 90 9c 00 00 00    	mov    %edx,0x9c(%eax)
      break;
  800dcf:	e9 42 ff ff ff       	jmp    800d16 <lwip_setsockopt_internal+0x2d>
      if (*(int*)optval) {
  800dd4:	83 3b 00             	cmpl   $0x0,(%ebx)
  800dd7:	74 0e                	je     800de7 <lwip_setsockopt_internal+0xfe>
        sock->conn->pcb.tcp->flags |= TF_NODELAY;
  800dd9:	8b 01                	mov    (%ecx),%eax
  800ddb:	8b 40 08             	mov    0x8(%eax),%eax
  800dde:	80 48 20 40          	orb    $0x40,0x20(%eax)
  800de2:	e9 2f ff ff ff       	jmp    800d16 <lwip_setsockopt_internal+0x2d>
        sock->conn->pcb.tcp->flags &= ~TF_NODELAY;
  800de7:	8b 01                	mov    (%ecx),%eax
  800de9:	8b 40 08             	mov    0x8(%eax),%eax
  800dec:	80 60 20 bf          	andb   $0xbf,0x20(%eax)
  800df0:	e9 21 ff ff ff       	jmp    800d16 <lwip_setsockopt_internal+0x2d>

00800df5 <lwip_socket_init>:
{
  800df5:	55                   	push   %ebp
  800df6:	89 e5                	mov    %esp,%ebp
  800df8:	83 ec 14             	sub    $0x14,%esp
  socksem   = sys_sem_new(1);
  800dfb:	6a 01                	push   $0x1
  800dfd:	e8 65 90 00 00       	call   809e67 <sys_sem_new>
  800e02:	a3 44 50 81 00       	mov    %eax,0x815044
  selectsem = sys_sem_new(1);
  800e07:	c7 04 24 01 00 00 00 	movl   $0x1,(%esp)
  800e0e:	e8 54 90 00 00       	call   809e67 <sys_sem_new>
  800e13:	a3 40 50 81 00       	mov    %eax,0x815040
}
  800e18:	83 c4 10             	add    $0x10,%esp
  800e1b:	c9                   	leave  
  800e1c:	c3                   	ret    

00800e1d <lwip_accept>:
{
  800e1d:	55                   	push   %ebp
  800e1e:	89 e5                	mov    %esp,%ebp
  800e20:	57                   	push   %edi
  800e21:	56                   	push   %esi
  800e22:	53                   	push   %ebx
  800e23:	83 ec 3c             	sub    $0x3c,%esp
  800e26:	8b 7d 10             	mov    0x10(%ebp),%edi
  sock = get_socket(s);
  800e29:	8b 45 08             	mov    0x8(%ebp),%eax
  800e2c:	e8 d9 f8 ff ff       	call   80070a <get_socket>
  if (!sock)
  800e31:	85 c0                	test   %eax,%eax
  800e33:	0f 84 8c 01 00 00    	je     800fc5 <lwip_accept+0x1a8>
  800e39:	89 c6                	mov    %eax,%esi
  newconn = netconn_accept(sock->conn);
  800e3b:	83 ec 0c             	sub    $0xc,%esp
  800e3e:	ff 30                	pushl  (%eax)
  800e40:	e8 28 a1 00 00       	call   80af6d <netconn_accept>
  800e45:	89 c3                	mov    %eax,%ebx
  if (!newconn) {
  800e47:	83 c4 10             	add    $0x10,%esp
  800e4a:	85 c0                	test   %eax,%eax
  800e4c:	0f 84 de 00 00 00    	je     800f30 <lwip_accept+0x113>
  err = netconn_peer(newconn, &naddr, &port);
  800e52:	6a 00                	push   $0x0
  800e54:	8d 45 e2             	lea    -0x1e(%ebp),%eax
  800e57:	50                   	push   %eax
  800e58:	8d 45 e4             	lea    -0x1c(%ebp),%eax
  800e5b:	50                   	push   %eax
  800e5c:	53                   	push   %ebx
  800e5d:	e8 55 9f 00 00       	call   80adb7 <netconn_getaddr>
  800e62:	88 45 c7             	mov    %al,-0x39(%ebp)
  if (err != ERR_OK) {
  800e65:	83 c4 10             	add    $0x10,%esp
  800e68:	84 c0                	test   %al,%al
  800e6a:	0f 85 e9 00 00 00    	jne    800f59 <lwip_accept+0x13c>
  memset(&sin, 0, sizeof(sin));
  800e70:	83 ec 04             	sub    $0x4,%esp
  800e73:	6a 10                	push   $0x10
  800e75:	6a 00                	push   $0x0
  800e77:	8d 45 d0             	lea    -0x30(%ebp),%eax
  800e7a:	50                   	push   %eax
  800e7b:	e8 8c e0 00 00       	call   80ef0c <memset>
  sin.sin_len = sizeof(sin);
  800e80:	c6 45 d0 10          	movb   $0x10,-0x30(%ebp)
  sin.sin_family = AF_INET;
  800e84:	c6 45 d1 02          	movb   $0x2,-0x2f(%ebp)
  sin.sin_port = htons(port);
  800e88:	0f b7 45 e2          	movzwl -0x1e(%ebp),%eax
  800e8c:	89 04 24             	mov    %eax,(%esp)
  800e8f:	e8 ee 68 00 00       	call   807782 <htons>
  800e94:	66 89 45 d2          	mov    %ax,-0x2e(%ebp)
  sin.sin_addr.s_addr = naddr.addr;
  800e98:	8b 45 e4             	mov    -0x1c(%ebp),%eax
  800e9b:	89 45 d4             	mov    %eax,-0x2c(%ebp)
  if (*addrlen > sizeof(sin))
  800e9e:	83 c4 10             	add    $0x10,%esp
  800ea1:	83 3f 10             	cmpl   $0x10,(%edi)
  800ea4:	76 06                	jbe    800eac <lwip_accept+0x8f>
    *addrlen = sizeof(sin);
  800ea6:	c7 07 10 00 00 00    	movl   $0x10,(%edi)
  SMEMCPY(addr, &sin, *addrlen);
  800eac:	83 ec 04             	sub    $0x4,%esp
  800eaf:	ff 37                	pushl  (%edi)
  800eb1:	8d 45 d0             	lea    -0x30(%ebp),%eax
  800eb4:	50                   	push   %eax
  800eb5:	ff 75 0c             	pushl  0xc(%ebp)
  800eb8:	e8 04 e1 00 00       	call   80efc1 <memcpy>
  newsock = alloc_socket(newconn);
  800ebd:	89 d8                	mov    %ebx,%eax
  800ebf:	e8 ec fb ff ff       	call   800ab0 <alloc_socket>
  800ec4:	89 c7                	mov    %eax,%edi
  if (newsock == -1) {
  800ec6:	83 c4 10             	add    $0x10,%esp
  800ec9:	83 f8 ff             	cmp    $0xffffffff,%eax
  800ecc:	0f 84 ba 00 00 00    	je     800f8c <lwip_accept+0x16f>
  LWIP_ASSERT("invalid socket index", (newsock >= 0) && (newsock < NUM_SOCKETS));
  800ed2:	83 f8 1f             	cmp    $0x1f,%eax
  800ed5:	0f 87 d3 00 00 00    	ja     800fae <lwip_accept+0x191>
  newconn->callback = event_callback;
  800edb:	c7 43 2c ff 08 80 00 	movl   $0x8008ff,0x2c(%ebx)
  sys_sem_wait(socksem);
  800ee2:	83 ec 0c             	sub    $0xc,%esp
  800ee5:	ff 35 44 50 81 00    	pushl  0x815044
  800eeb:	e8 4b 42 00 00       	call   80513b <sys_sem_wait>
  nsock->rcvevent += -1 - newconn->socket;
  800ef0:	8d 04 bf             	lea    (%edi,%edi,4),%eax
  800ef3:	0f b7 53 1c          	movzwl 0x1c(%ebx),%edx
  800ef7:	f7 d2                	not    %edx
  800ef9:	66 01 14 85 6a 50 81 	add    %dx,0x81506a(,%eax,4)
  800f00:	00 
  newconn->socket = newsock;
  800f01:	89 7b 1c             	mov    %edi,0x1c(%ebx)
  sys_sem_signal(socksem);
  800f04:	83 c4 04             	add    $0x4,%esp
  800f07:	ff 35 44 50 81 00    	pushl  0x815044
  800f0d:	e8 12 92 00 00       	call   80a124 <sys_sem_signal>
  sock_set_errno(sock, 0);
  800f12:	c7 46 10 00 00 00 00 	movl   $0x0,0x10(%esi)
  800f19:	c7 05 e0 b1 b3 00 00 	movl   $0x0,0xb3b1e0
  800f20:	00 00 00 
  return newsock;
  800f23:	83 c4 10             	add    $0x10,%esp
}
  800f26:	89 f8                	mov    %edi,%eax
  800f28:	8d 65 f4             	lea    -0xc(%ebp),%esp
  800f2b:	5b                   	pop    %ebx
  800f2c:	5e                   	pop    %esi
  800f2d:	5f                   	pop    %edi
  800f2e:	5d                   	pop    %ebp
  800f2f:	c3                   	ret    
    sock_set_errno(sock, err_to_errno(sock->conn->err));
  800f30:	8b 06                	mov    (%esi),%eax
  800f32:	0f be 40 0c          	movsbl 0xc(%eax),%eax
  800f36:	f7 d8                	neg    %eax
  800f38:	ba 05 00 00 00       	mov    $0x5,%edx
  800f3d:	83 f8 0e             	cmp    $0xe,%eax
  800f40:	77 07                	ja     800f49 <lwip_accept+0x12c>
  800f42:	8b 14 85 60 12 81 00 	mov    0x811260(,%eax,4),%edx
  800f49:	89 56 10             	mov    %edx,0x10(%esi)
  800f4c:	89 15 e0 b1 b3 00    	mov    %edx,0xb3b1e0
    return -1;
  800f52:	bf ff ff ff ff       	mov    $0xffffffff,%edi
  800f57:	eb cd                	jmp    800f26 <lwip_accept+0x109>
    netconn_delete(newconn);
  800f59:	83 ec 0c             	sub    $0xc,%esp
  800f5c:	53                   	push   %ebx
  800f5d:	e8 ed 9d 00 00       	call   80ad4f <netconn_delete>
    sock_set_errno(sock, err_to_errno(err));
  800f62:	0f be 45 c7          	movsbl -0x39(%ebp),%eax
  800f66:	f7 d8                	neg    %eax
  800f68:	83 c4 10             	add    $0x10,%esp
  800f6b:	ba 05 00 00 00       	mov    $0x5,%edx
  800f70:	83 f8 0e             	cmp    $0xe,%eax
  800f73:	77 07                	ja     800f7c <lwip_accept+0x15f>
  800f75:	8b 14 85 60 12 81 00 	mov    0x811260(,%eax,4),%edx
  800f7c:	89 56 10             	mov    %edx,0x10(%esi)
  800f7f:	89 15 e0 b1 b3 00    	mov    %edx,0xb3b1e0
    return -1;
  800f85:	bf ff ff ff ff       	mov    $0xffffffff,%edi
  800f8a:	eb 9a                	jmp    800f26 <lwip_accept+0x109>
    netconn_delete(newconn);
  800f8c:	83 ec 0c             	sub    $0xc,%esp
  800f8f:	53                   	push   %ebx
  800f90:	e8 ba 9d 00 00       	call   80ad4f <netconn_delete>
    sock_set_errno(sock, ENFILE);
  800f95:	c7 46 10 17 00 00 00 	movl   $0x17,0x10(%esi)
  800f9c:	c7 05 e0 b1 b3 00 17 	movl   $0x17,0xb3b1e0
  800fa3:	00 00 00 
    return -1;
  800fa6:	83 c4 10             	add    $0x10,%esp
  800fa9:	e9 78 ff ff ff       	jmp    800f26 <lwip_accept+0x109>
  LWIP_ASSERT("invalid socket index", (newsock >= 0) && (newsock < NUM_SOCKETS));
  800fae:	83 ec 04             	sub    $0x4,%esp
  800fb1:	68 b3 11 81 00       	push   $0x8111b3
  800fb6:	68 25 01 00 00       	push   $0x125
  800fbb:	68 90 11 81 00       	push   $0x811190
  800fc0:	e8 8e d6 00 00       	call   80e653 <_panic>
    return -1;
  800fc5:	bf ff ff ff ff       	mov    $0xffffffff,%edi
  800fca:	e9 57 ff ff ff       	jmp    800f26 <lwip_accept+0x109>

00800fcf <lwip_bind>:
{
  800fcf:	55                   	push   %ebp
  800fd0:	89 e5                	mov    %esp,%ebp
  800fd2:	56                   	push   %esi
  800fd3:	53                   	push   %ebx
  800fd4:	83 ec 10             	sub    $0x10,%esp
  800fd7:	8b 75 0c             	mov    0xc(%ebp),%esi
  sock = get_socket(s);
  800fda:	8b 45 08             	mov    0x8(%ebp),%eax
  800fdd:	e8 28 f7 ff ff       	call   80070a <get_socket>
  if (!sock)
  800fe2:	85 c0                	test   %eax,%eax
  800fe4:	0f 84 94 00 00 00    	je     80107e <lwip_bind+0xaf>
  800fea:	89 c3                	mov    %eax,%ebx
  LWIP_ERROR("lwip_bind: invalid address", ((namelen == sizeof(struct sockaddr_in)) &&
  800fec:	83 7d 10 10          	cmpl   $0x10,0x10(%ebp)
  800ff0:	75 4f                	jne    801041 <lwip_bind+0x72>
  800ff2:	80 7e 01 02          	cmpb   $0x2,0x1(%esi)
  800ff6:	75 49                	jne    801041 <lwip_bind+0x72>
  local_addr.addr = ((struct sockaddr_in *)name)->sin_addr.s_addr;
  800ff8:	8b 46 04             	mov    0x4(%esi),%eax
  800ffb:	89 45 f4             	mov    %eax,-0xc(%ebp)
  err = netconn_bind(sock->conn, &local_addr, ntohs(local_port));
  800ffe:	83 ec 0c             	sub    $0xc,%esp
  801001:	0f b7 46 02          	movzwl 0x2(%esi),%eax
  801005:	50                   	push   %eax
  801006:	e8 84 67 00 00       	call   80778f <ntohs>
  80100b:	83 c4 0c             	add    $0xc,%esp
  80100e:	0f b7 c0             	movzwl %ax,%eax
  801011:	50                   	push   %eax
  801012:	8d 45 f4             	lea    -0xc(%ebp),%eax
  801015:	50                   	push   %eax
  801016:	ff 33                	pushl  (%ebx)
  801018:	e8 26 9e 00 00       	call   80ae43 <netconn_bind>
  if (err != ERR_OK) {
  80101d:	83 c4 10             	add    $0x10,%esp
  801020:	84 c0                	test   %al,%al
  801022:	75 34                	jne    801058 <lwip_bind+0x89>
  sock_set_errno(sock, 0);
  801024:	c7 43 10 00 00 00 00 	movl   $0x0,0x10(%ebx)
  80102b:	c7 05 e0 b1 b3 00 00 	movl   $0x0,0xb3b1e0
  801032:	00 00 00 
  return 0;
  801035:	b8 00 00 00 00       	mov    $0x0,%eax
}
  80103a:	8d 65 f8             	lea    -0x8(%ebp),%esp
  80103d:	5b                   	pop    %ebx
  80103e:	5e                   	pop    %esi
  80103f:	5d                   	pop    %ebp
  801040:	c3                   	ret    
  LWIP_ERROR("lwip_bind: invalid address", ((namelen == sizeof(struct sockaddr_in)) &&
  801041:	83 ec 04             	sub    $0x4,%esp
  801044:	68 c8 11 81 00       	push   $0x8111c8
  801049:	68 4a 01 00 00       	push   $0x14a
  80104e:	68 90 11 81 00       	push   $0x811190
  801053:	e8 fb d5 00 00       	call   80e653 <_panic>
    sock_set_errno(sock, err_to_errno(err));
  801058:	0f be c0             	movsbl %al,%eax
  80105b:	f7 d8                	neg    %eax
  80105d:	ba 05 00 00 00       	mov    $0x5,%edx
  801062:	83 f8 0e             	cmp    $0xe,%eax
  801065:	77 07                	ja     80106e <lwip_bind+0x9f>
  801067:	8b 14 85 60 12 81 00 	mov    0x811260(,%eax,4),%edx
  80106e:	89 53 10             	mov    %edx,0x10(%ebx)
  801071:	89 15 e0 b1 b3 00    	mov    %edx,0xb3b1e0
    return -1;
  801077:	b8 ff ff ff ff       	mov    $0xffffffff,%eax
  80107c:	eb bc                	jmp    80103a <lwip_bind+0x6b>
    return -1;
  80107e:	b8 ff ff ff ff       	mov    $0xffffffff,%eax
  801083:	eb b5                	jmp    80103a <lwip_bind+0x6b>

00801085 <lwip_close>:
{
  801085:	55                   	push   %ebp
  801086:	89 e5                	mov    %esp,%ebp
  801088:	53                   	push   %ebx
  801089:	83 ec 04             	sub    $0x4,%esp
  sock = get_socket(s);
  80108c:	8b 45 08             	mov    0x8(%ebp),%eax
  80108f:	e8 76 f6 ff ff       	call   80070a <get_socket>
  if (!sock) {
  801094:	85 c0                	test   %eax,%eax
  801096:	74 6f                	je     801107 <lwip_close+0x82>
  801098:	89 c3                	mov    %eax,%ebx
  netconn_delete(sock->conn);
  80109a:	83 ec 0c             	sub    $0xc,%esp
  80109d:	ff 30                	pushl  (%eax)
  80109f:	e8 ab 9c 00 00       	call   80ad4f <netconn_delete>
  sys_sem_wait(socksem);
  8010a4:	83 c4 04             	add    $0x4,%esp
  8010a7:	ff 35 44 50 81 00    	pushl  0x815044
  8010ad:	e8 89 40 00 00       	call   80513b <sys_sem_wait>
  if (sock->lastdata) {
  8010b2:	8b 43 04             	mov    0x4(%ebx),%eax
  8010b5:	83 c4 10             	add    $0x10,%esp
  8010b8:	85 c0                	test   %eax,%eax
  8010ba:	74 0c                	je     8010c8 <lwip_close+0x43>
    netbuf_delete(sock->lastdata);
  8010bc:	83 ec 0c             	sub    $0xc,%esp
  8010bf:	50                   	push   %eax
  8010c0:	e8 84 13 00 00       	call   802449 <netbuf_delete>
  8010c5:	83 c4 10             	add    $0x10,%esp
  sock->lastdata   = NULL;
  8010c8:	c7 43 04 00 00 00 00 	movl   $0x0,0x4(%ebx)
  sock->lastoffset = 0;
  8010cf:	66 c7 43 08 00 00    	movw   $0x0,0x8(%ebx)
  sock->conn       = NULL;
  8010d5:	c7 03 00 00 00 00    	movl   $0x0,(%ebx)
  sock_set_errno(sock, 0);
  8010db:	c7 43 10 00 00 00 00 	movl   $0x0,0x10(%ebx)
  8010e2:	c7 05 e0 b1 b3 00 00 	movl   $0x0,0xb3b1e0
  8010e9:	00 00 00 
  sys_sem_signal(socksem);
  8010ec:	83 ec 0c             	sub    $0xc,%esp
  8010ef:	ff 35 44 50 81 00    	pushl  0x815044
  8010f5:	e8 2a 90 00 00       	call   80a124 <sys_sem_signal>
  return 0;
  8010fa:	83 c4 10             	add    $0x10,%esp
  8010fd:	b8 00 00 00 00       	mov    $0x0,%eax
}
  801102:	8b 5d fc             	mov    -0x4(%ebp),%ebx
  801105:	c9                   	leave  
  801106:	c3                   	ret    
    return -1;
  801107:	b8 ff ff ff ff       	mov    $0xffffffff,%eax
  80110c:	eb f4                	jmp    801102 <lwip_close+0x7d>

0080110e <lwip_connect>:
{
  80110e:	55                   	push   %ebp
  80110f:	89 e5                	mov    %esp,%ebp
  801111:	56                   	push   %esi
  801112:	53                   	push   %ebx
  801113:	83 ec 10             	sub    $0x10,%esp
  801116:	8b 75 0c             	mov    0xc(%ebp),%esi
  sock = get_socket(s);
  801119:	8b 45 08             	mov    0x8(%ebp),%eax
  80111c:	e8 e9 f5 ff ff       	call   80070a <get_socket>
  if (!sock)
  801121:	85 c0                	test   %eax,%eax
  801123:	0f 84 94 00 00 00    	je     8011bd <lwip_connect+0xaf>
  801129:	89 c3                	mov    %eax,%ebx
  LWIP_ERROR("lwip_connect: invalid address", ((namelen == sizeof(struct sockaddr_in)) &&
  80112b:	83 7d 10 10          	cmpl   $0x10,0x10(%ebp)
  80112f:	75 4f                	jne    801180 <lwip_connect+0x72>
  801131:	80 7e 01 02          	cmpb   $0x2,0x1(%esi)
  801135:	75 49                	jne    801180 <lwip_connect+0x72>
    remote_addr.addr = ((struct sockaddr_in *)name)->sin_addr.s_addr;
  801137:	8b 46 04             	mov    0x4(%esi),%eax
  80113a:	89 45 f4             	mov    %eax,-0xc(%ebp)
    err = netconn_connect(sock->conn, &remote_addr, ntohs(remote_port));
  80113d:	83 ec 0c             	sub    $0xc,%esp
  801140:	0f b7 46 02          	movzwl 0x2(%esi),%eax
  801144:	50                   	push   %eax
  801145:	e8 45 66 00 00       	call   80778f <ntohs>
  80114a:	83 c4 0c             	add    $0xc,%esp
  80114d:	0f b7 c0             	movzwl %ax,%eax
  801150:	50                   	push   %eax
  801151:	8d 45 f4             	lea    -0xc(%ebp),%eax
  801154:	50                   	push   %eax
  801155:	ff 33                	pushl  (%ebx)
  801157:	e8 38 9d 00 00       	call   80ae94 <netconn_connect>
  if (err != ERR_OK) {
  80115c:	83 c4 10             	add    $0x10,%esp
  80115f:	84 c0                	test   %al,%al
  801161:	75 34                	jne    801197 <lwip_connect+0x89>
  sock_set_errno(sock, 0);
  801163:	c7 43 10 00 00 00 00 	movl   $0x0,0x10(%ebx)
  80116a:	c7 05 e0 b1 b3 00 00 	movl   $0x0,0xb3b1e0
  801171:	00 00 00 
  return 0;
  801174:	b8 00 00 00 00       	mov    $0x0,%eax
}
  801179:	8d 65 f8             	lea    -0x8(%ebp),%esp
  80117c:	5b                   	pop    %ebx
  80117d:	5e                   	pop    %esi
  80117e:	5d                   	pop    %ebp
  80117f:	c3                   	ret    
  LWIP_ERROR("lwip_connect: invalid address", ((namelen == sizeof(struct sockaddr_in)) &&
  801180:	83 ec 04             	sub    $0x4,%esp
  801183:	68 e3 11 81 00       	push   $0x8111e3
  801188:	68 86 01 00 00       	push   $0x186
  80118d:	68 90 11 81 00       	push   $0x811190
  801192:	e8 bc d4 00 00       	call   80e653 <_panic>
    sock_set_errno(sock, err_to_errno(err));
  801197:	0f be c0             	movsbl %al,%eax
  80119a:	f7 d8                	neg    %eax
  80119c:	ba 05 00 00 00       	mov    $0x5,%edx
  8011a1:	83 f8 0e             	cmp    $0xe,%eax
  8011a4:	77 07                	ja     8011ad <lwip_connect+0x9f>
  8011a6:	8b 14 85 60 12 81 00 	mov    0x811260(,%eax,4),%edx
  8011ad:	89 53 10             	mov    %edx,0x10(%ebx)
  8011b0:	89 15 e0 b1 b3 00    	mov    %edx,0xb3b1e0
    return -1;
  8011b6:	b8 ff ff ff ff       	mov    $0xffffffff,%eax
  8011bb:	eb bc                	jmp    801179 <lwip_connect+0x6b>
    return -1;
  8011bd:	b8 ff ff ff ff       	mov    $0xffffffff,%eax
  8011c2:	eb b5                	jmp    801179 <lwip_connect+0x6b>

008011c4 <lwip_listen>:
{
  8011c4:	55                   	push   %ebp
  8011c5:	89 e5                	mov    %esp,%ebp
  8011c7:	56                   	push   %esi
  8011c8:	53                   	push   %ebx
  8011c9:	8b 5d 0c             	mov    0xc(%ebp),%ebx
  sock = get_socket(s);
  8011cc:	8b 45 08             	mov    0x8(%ebp),%eax
  8011cf:	e8 36 f5 ff ff       	call   80070a <get_socket>
  if (!sock)
  8011d4:	85 c0                	test   %eax,%eax
  8011d6:	74 72                	je     80124a <lwip_listen+0x86>
  8011d8:	89 c6                	mov    %eax,%esi
  8011da:	81 fb ff 00 00 00    	cmp    $0xff,%ebx
  8011e0:	b8 ff 00 00 00       	mov    $0xff,%eax
  8011e5:	0f 4f d8             	cmovg  %eax,%ebx
  err = netconn_listen_with_backlog(sock->conn, backlog);
  8011e8:	83 ec 08             	sub    $0x8,%esp
  8011eb:	85 db                	test   %ebx,%ebx
  8011ed:	b8 00 00 00 00       	mov    $0x0,%eax
  8011f2:	0f 48 d8             	cmovs  %eax,%ebx
  8011f5:	0f b6 db             	movzbl %bl,%ebx
  8011f8:	53                   	push   %ebx
  8011f9:	ff 36                	pushl  (%esi)
  8011fb:	e8 29 9d 00 00       	call   80af29 <netconn_listen_with_backlog>
  if (err != ERR_OK) {
  801200:	83 c4 10             	add    $0x10,%esp
  801203:	84 c0                	test   %al,%al
  801205:	75 1d                	jne    801224 <lwip_listen+0x60>
  sock_set_errno(sock, 0);
  801207:	c7 46 10 00 00 00 00 	movl   $0x0,0x10(%esi)
  80120e:	c7 05 e0 b1 b3 00 00 	movl   $0x0,0xb3b1e0
  801215:	00 00 00 
  return 0;
  801218:	b8 00 00 00 00       	mov    $0x0,%eax
}
  80121d:	8d 65 f8             	lea    -0x8(%ebp),%esp
  801220:	5b                   	pop    %ebx
  801221:	5e                   	pop    %esi
  801222:	5d                   	pop    %ebp
  801223:	c3                   	ret    
    sock_set_errno(sock, err_to_errno(err));
  801224:	0f be c0             	movsbl %al,%eax
  801227:	f7 d8                	neg    %eax
  801229:	ba 05 00 00 00       	mov    $0x5,%edx
  80122e:	83 f8 0e             	cmp    $0xe,%eax
  801231:	77 07                	ja     80123a <lwip_listen+0x76>
  801233:	8b 14 85 60 12 81 00 	mov    0x811260(,%eax,4),%edx
  80123a:	89 56 10             	mov    %edx,0x10(%esi)
  80123d:	89 15 e0 b1 b3 00    	mov    %edx,0xb3b1e0
    return -1;
  801243:	b8 ff ff ff ff       	mov    $0xffffffff,%eax
  801248:	eb d3                	jmp    80121d <lwip_listen+0x59>
    return -1;
  80124a:	b8 ff ff ff ff       	mov    $0xffffffff,%eax
  80124f:	eb cc                	jmp    80121d <lwip_listen+0x59>

00801251 <lwip_recvfrom>:
{
  801251:	55                   	push   %ebp
  801252:	89 e5                	mov    %esp,%ebp
  801254:	57                   	push   %edi
  801255:	56                   	push   %esi
  801256:	53                   	push   %ebx
  801257:	83 ec 3c             	sub    $0x3c,%esp
  sock = get_socket(s);
  80125a:	8b 45 08             	mov    0x8(%ebp),%eax
  80125d:	e8 a8 f4 ff ff       	call   80070a <get_socket>
  if (!sock)
  801262:	85 c0                	test   %eax,%eax
  801264:	0f 84 30 02 00 00    	je     80149a <lwip_recvfrom+0x249>
  80126a:	89 c7                	mov    %eax,%edi
  u16_t               buflen, copylen, off = 0;
  80126c:	66 c7 45 c0 00 00    	movw   $0x0,-0x40(%ebp)
      if (((flags & MSG_DONTWAIT) || (sock->flags & O_NONBLOCK)) && !sock->rcvevent) {
  801272:	8b 45 14             	mov    0x14(%ebp),%eax
  801275:	83 e0 08             	and    $0x8,%eax
  801278:	89 45 b8             	mov    %eax,-0x48(%ebp)
  80127b:	e9 b9 00 00 00       	jmp    801339 <lwip_recvfrom+0xe8>
  801280:	83 7d b8 00          	cmpl   $0x0,-0x48(%ebp)
  801284:	75 06                	jne    80128c <lwip_recvfrom+0x3b>
  801286:	f6 47 0f 08          	testb  $0x8,0xf(%edi)
  80128a:	74 07                	je     801293 <lwip_recvfrom+0x42>
  80128c:	66 83 7f 0a 00       	cmpw   $0x0,0xa(%edi)
  801291:	74 56                	je     8012e9 <lwip_recvfrom+0x98>
      sock->lastdata = buf = netconn_recv(sock->conn);
  801293:	83 ec 0c             	sub    $0xc,%esp
  801296:	ff 37                	pushl  (%edi)
  801298:	e8 42 9d 00 00       	call   80afdf <netconn_recv>
  80129d:	89 c6                	mov    %eax,%esi
  80129f:	89 47 04             	mov    %eax,0x4(%edi)
      if (!buf) {
  8012a2:	83 c4 10             	add    $0x10,%esp
  8012a5:	85 c0                	test   %eax,%eax
  8012a7:	0f 85 97 00 00 00    	jne    801344 <lwip_recvfrom+0xf3>
        sock_set_errno(sock, (((sock->conn->pcb.ip!=NULL) && (sock->conn->err==ERR_OK))?ETIMEDOUT:err_to_errno(sock->conn->err)));
  8012ad:	8b 17                	mov    (%edi),%edx
  8012af:	83 7a 08 00          	cmpl   $0x0,0x8(%edx)
  8012b3:	74 0b                	je     8012c0 <lwip_recvfrom+0x6f>
  8012b5:	b8 6e 00 00 00       	mov    $0x6e,%eax
  8012ba:	80 7a 0c 00          	cmpb   $0x0,0xc(%edx)
  8012be:	74 17                	je     8012d7 <lwip_recvfrom+0x86>
  8012c0:	0f be 52 0c          	movsbl 0xc(%edx),%edx
  8012c4:	f7 da                	neg    %edx
  8012c6:	b8 05 00 00 00       	mov    $0x5,%eax
  8012cb:	83 fa 0e             	cmp    $0xe,%edx
  8012ce:	77 07                	ja     8012d7 <lwip_recvfrom+0x86>
  8012d0:	8b 04 95 60 12 81 00 	mov    0x811260(,%edx,4),%eax
  8012d7:	89 47 10             	mov    %eax,0x10(%edi)
  8012da:	a3 e0 b1 b3 00       	mov    %eax,0xb3b1e0
        return 0;
  8012df:	b8 00 00 00 00       	mov    $0x0,%eax
  8012e4:	e9 19 01 00 00       	jmp    801402 <lwip_recvfrom+0x1b1>
        sock_set_errno(sock, EWOULDBLOCK);
  8012e9:	c7 47 10 0b 00 00 00 	movl   $0xb,0x10(%edi)
  8012f0:	c7 05 e0 b1 b3 00 0b 	movl   $0xb,0xb3b1e0
  8012f7:	00 00 00 
        return -1;
  8012fa:	b8 ff ff ff ff       	mov    $0xffffffff,%eax
  8012ff:	e9 fe 00 00 00       	jmp    801402 <lwip_recvfrom+0x1b1>
      done = 1;
  801304:	c6 45 c3 01          	movb   $0x1,-0x3d(%ebp)
  801308:	e9 a9 00 00 00       	jmp    8013b6 <lwip_recvfrom+0x165>
        done = 1;
  80130d:	c6 45 c3 01          	movb   $0x1,-0x3d(%ebp)
  801311:	e9 a0 00 00 00       	jmp    8013b6 <lwip_recvfrom+0x165>
        sock->lastdata = NULL;
  801316:	c7 47 04 00 00 00 00 	movl   $0x0,0x4(%edi)
        sock->lastoffset = 0;
  80131d:	66 c7 47 08 00 00    	movw   $0x0,0x8(%edi)
        netbuf_delete(buf);
  801323:	83 ec 0c             	sub    $0xc,%esp
  801326:	56                   	push   %esi
  801327:	e8 1d 11 00 00       	call   802449 <netbuf_delete>
  80132c:	83 c4 10             	add    $0x10,%esp
  } while (!done);
  80132f:	80 7d c3 00          	cmpb   $0x0,-0x3d(%ebp)
  801333:	0f 85 a8 00 00 00    	jne    8013e1 <lwip_recvfrom+0x190>
    if (sock->lastdata) {
  801339:	8b 77 04             	mov    0x4(%edi),%esi
  80133c:	85 f6                	test   %esi,%esi
  80133e:	0f 84 3c ff ff ff    	je     801280 <lwip_recvfrom+0x2f>
    buflen = netbuf_len(buf);
  801344:	8b 16                	mov    (%esi),%edx
    buflen -= sock->lastoffset;
  801346:	0f b7 47 08          	movzwl 0x8(%edi),%eax
  80134a:	0f b7 5a 08          	movzwl 0x8(%edx),%ebx
  80134e:	29 c3                	sub    %eax,%ebx
    if (len > buflen) {
  801350:	0f b7 cb             	movzwl %bx,%ecx
  801353:	89 4d bc             	mov    %ecx,-0x44(%ebp)
      copylen = len;
  801356:	3b 4d 10             	cmp    0x10(%ebp),%ecx
  801359:	66 0f 4d 5d 10       	cmovge 0x10(%ebp),%bx
    netbuf_copy_partial(buf, (u8_t*)mem + off, copylen, sock->lastoffset);
  80135e:	0f b7 cb             	movzwl %bx,%ecx
  801361:	0f b7 c0             	movzwl %ax,%eax
  801364:	50                   	push   %eax
  801365:	89 4d c4             	mov    %ecx,-0x3c(%ebp)
  801368:	51                   	push   %ecx
  801369:	0f b7 45 c0          	movzwl -0x40(%ebp),%eax
  80136d:	03 45 0c             	add    0xc(%ebp),%eax
  801370:	50                   	push   %eax
  801371:	52                   	push   %edx
  801372:	e8 60 3c 00 00       	call   804fd7 <pbuf_copy_partial>
    off += copylen;
  801377:	66 01 5d c0          	add    %bx,-0x40(%ebp)
    if (netconn_type(sock->conn) == NETCONN_TCP) {
  80137b:	83 c4 04             	add    $0x4,%esp
  80137e:	ff 37                	pushl  (%edi)
  801380:	e8 0a 9a 00 00       	call   80ad8f <netconn_type>
  801385:	83 c4 10             	add    $0x10,%esp
  801388:	83 f8 10             	cmp    $0x10,%eax
  80138b:	0f 85 73 ff ff ff    	jne    801304 <lwip_recvfrom+0xb3>
      len -= copylen;
  801391:	8b 4d c4             	mov    -0x3c(%ebp),%ecx
  801394:	29 4d 10             	sub    %ecx,0x10(%ebp)
      if ( (len <= 0) || (buf->p->flags & PBUF_FLAG_PUSH) || !sock->rcvevent) {
  801397:	83 7d 10 00          	cmpl   $0x0,0x10(%ebp)
  80139b:	0f 8e 6c ff ff ff    	jle    80130d <lwip_recvfrom+0xbc>
  8013a1:	8b 06                	mov    (%esi),%eax
        done = 1;
  8013a3:	c6 45 c3 01          	movb   $0x1,-0x3d(%ebp)
      if ( (len <= 0) || (buf->p->flags & PBUF_FLAG_PUSH) || !sock->rcvevent) {
  8013a7:	f6 40 0d 01          	testb  $0x1,0xd(%eax)
  8013ab:	75 09                	jne    8013b6 <lwip_recvfrom+0x165>
  8013ad:	66 83 7f 0a 00       	cmpw   $0x0,0xa(%edi)
  8013b2:	0f 94 45 c3          	sete   -0x3d(%ebp)
    if ((flags & MSG_PEEK)==0) {
  8013b6:	f6 45 14 01          	testb  $0x1,0x14(%ebp)
  8013ba:	75 25                	jne    8013e1 <lwip_recvfrom+0x190>
      if ((sock->conn->type == NETCONN_TCP) && (buflen - copylen > 0)) {
  8013bc:	8b 07                	mov    (%edi),%eax
  8013be:	83 38 10             	cmpl   $0x10,(%eax)
  8013c1:	0f 85 4f ff ff ff    	jne    801316 <lwip_recvfrom+0xc5>
  8013c7:	8b 45 bc             	mov    -0x44(%ebp),%eax
  8013ca:	2b 45 c4             	sub    -0x3c(%ebp),%eax
  8013cd:	85 c0                	test   %eax,%eax
  8013cf:	0f 8e 41 ff ff ff    	jle    801316 <lwip_recvfrom+0xc5>
        sock->lastdata = buf;
  8013d5:	89 77 04             	mov    %esi,0x4(%edi)
        sock->lastoffset += copylen;
  8013d8:	66 01 5f 08          	add    %bx,0x8(%edi)
        LWIP_DEBUGF(SOCKETS_DEBUG, ("lwip_recvfrom: lastdata now netbuf=%p\n", (void*)buf));
  8013dc:	e9 4e ff ff ff       	jmp    80132f <lwip_recvfrom+0xde>
  if (from && fromlen) {
  8013e1:	83 7d 18 00          	cmpl   $0x0,0x18(%ebp)
  8013e5:	74 06                	je     8013ed <lwip_recvfrom+0x19c>
  8013e7:	83 7d 1c 00          	cmpl   $0x0,0x1c(%ebp)
  8013eb:	75 1d                	jne    80140a <lwip_recvfrom+0x1b9>
  sock_set_errno(sock, 0);
  8013ed:	c7 47 10 00 00 00 00 	movl   $0x0,0x10(%edi)
  8013f4:	c7 05 e0 b1 b3 00 00 	movl   $0x0,0xb3b1e0
  8013fb:	00 00 00 
  return off;
  8013fe:	0f b7 45 c0          	movzwl -0x40(%ebp),%eax
}
  801402:	8d 65 f4             	lea    -0xc(%ebp),%esp
  801405:	5b                   	pop    %ebx
  801406:	5e                   	pop    %esi
  801407:	5f                   	pop    %edi
  801408:	5d                   	pop    %ebp
  801409:	c3                   	ret    
    if (netconn_type(sock->conn) == NETCONN_TCP) {
  80140a:	83 ec 0c             	sub    $0xc,%esp
  80140d:	ff 37                	pushl  (%edi)
  80140f:	e8 7b 99 00 00       	call   80ad8f <netconn_type>
  801414:	83 c4 10             	add    $0x10,%esp
  801417:	83 f8 10             	cmp    $0x10,%eax
  80141a:	74 65                	je     801481 <lwip_recvfrom+0x230>
      addr = netbuf_fromaddr(buf);
  80141c:	8b 5e 08             	mov    0x8(%esi),%ebx
      port = netbuf_fromport(buf);
  80141f:	0f b7 46 0c          	movzwl 0xc(%esi),%eax
  801423:	66 89 45 e6          	mov    %ax,-0x1a(%ebp)
    memset(&sin, 0, sizeof(sin));
  801427:	83 ec 04             	sub    $0x4,%esp
  80142a:	6a 10                	push   $0x10
  80142c:	6a 00                	push   $0x0
  80142e:	8d 45 d4             	lea    -0x2c(%ebp),%eax
  801431:	50                   	push   %eax
  801432:	e8 d5 da 00 00       	call   80ef0c <memset>
    sin.sin_len = sizeof(sin);
  801437:	c6 45 d4 10          	movb   $0x10,-0x2c(%ebp)
    sin.sin_family = AF_INET;
  80143b:	c6 45 d5 02          	movb   $0x2,-0x2b(%ebp)
    sin.sin_port = htons(port);
  80143f:	0f b7 45 e6          	movzwl -0x1a(%ebp),%eax
  801443:	89 04 24             	mov    %eax,(%esp)
  801446:	e8 37 63 00 00       	call   807782 <htons>
  80144b:	66 89 45 d6          	mov    %ax,-0x2a(%ebp)
    sin.sin_addr.s_addr = addr->addr;
  80144f:	8b 03                	mov    (%ebx),%eax
  801451:	89 45 d8             	mov    %eax,-0x28(%ebp)
    if (*fromlen > sizeof(sin))
  801454:	83 c4 10             	add    $0x10,%esp
  801457:	8b 45 1c             	mov    0x1c(%ebp),%eax
  80145a:	83 38 10             	cmpl   $0x10,(%eax)
  80145d:	76 06                	jbe    801465 <lwip_recvfrom+0x214>
      *fromlen = sizeof(sin);
  80145f:	c7 00 10 00 00 00    	movl   $0x10,(%eax)
    SMEMCPY(from, &sin, *fromlen);
  801465:	83 ec 04             	sub    $0x4,%esp
  801468:	8b 45 1c             	mov    0x1c(%ebp),%eax
  80146b:	ff 30                	pushl  (%eax)
  80146d:	8d 45 d4             	lea    -0x2c(%ebp),%eax
  801470:	50                   	push   %eax
  801471:	ff 75 18             	pushl  0x18(%ebp)
  801474:	e8 48 db 00 00       	call   80efc1 <memcpy>
  801479:	83 c4 10             	add    $0x10,%esp
  80147c:	e9 6c ff ff ff       	jmp    8013ed <lwip_recvfrom+0x19c>
      netconn_getaddr(sock->conn, addr, &port, 0);
  801481:	6a 00                	push   $0x0
  801483:	8d 45 e6             	lea    -0x1a(%ebp),%eax
  801486:	50                   	push   %eax
  801487:	8d 45 d8             	lea    -0x28(%ebp),%eax
  80148a:	50                   	push   %eax
  80148b:	ff 37                	pushl  (%edi)
  80148d:	e8 25 99 00 00       	call   80adb7 <netconn_getaddr>
  801492:	83 c4 10             	add    $0x10,%esp
      addr = (struct ip_addr*)&(sin.sin_addr.s_addr);
  801495:	8d 5d d8             	lea    -0x28(%ebp),%ebx
  801498:	eb 8d                	jmp    801427 <lwip_recvfrom+0x1d6>
    return -1;
  80149a:	b8 ff ff ff ff       	mov    $0xffffffff,%eax
  80149f:	e9 5e ff ff ff       	jmp    801402 <lwip_recvfrom+0x1b1>

008014a4 <lwip_read>:
{
  8014a4:	55                   	push   %ebp
  8014a5:	89 e5                	mov    %esp,%ebp
  8014a7:	83 ec 10             	sub    $0x10,%esp
  return lwip_recvfrom(s, mem, len, 0, NULL, NULL);
  8014aa:	6a 00                	push   $0x0
  8014ac:	6a 00                	push   $0x0
  8014ae:	6a 00                	push   $0x0
  8014b0:	ff 75 10             	pushl  0x10(%ebp)
  8014b3:	ff 75 0c             	pushl  0xc(%ebp)
  8014b6:	ff 75 08             	pushl  0x8(%ebp)
  8014b9:	e8 93 fd ff ff       	call   801251 <lwip_recvfrom>
}
  8014be:	c9                   	leave  
  8014bf:	c3                   	ret    

008014c0 <lwip_recv>:
{
  8014c0:	55                   	push   %ebp
  8014c1:	89 e5                	mov    %esp,%ebp
  8014c3:	83 ec 10             	sub    $0x10,%esp
  return lwip_recvfrom(s, mem, len, flags, NULL, NULL);
  8014c6:	6a 00                	push   $0x0
  8014c8:	6a 00                	push   $0x0
  8014ca:	ff 75 14             	pushl  0x14(%ebp)
  8014cd:	ff 75 10             	pushl  0x10(%ebp)
  8014d0:	ff 75 0c             	pushl  0xc(%ebp)
  8014d3:	ff 75 08             	pushl  0x8(%ebp)
  8014d6:	e8 76 fd ff ff       	call   801251 <lwip_recvfrom>
}
  8014db:	c9                   	leave  
  8014dc:	c3                   	ret    

008014dd <lwip_sendto>:
{
  8014dd:	55                   	push   %ebp
  8014de:	89 e5                	mov    %esp,%ebp
  8014e0:	57                   	push   %edi
  8014e1:	56                   	push   %esi
  8014e2:	53                   	push   %ebx
  8014e3:	83 ec 2c             	sub    $0x2c,%esp
  8014e6:	8b 75 10             	mov    0x10(%ebp),%esi
  8014e9:	8b 5d 18             	mov    0x18(%ebp),%ebx
  sock = get_socket(s);
  8014ec:	8b 45 08             	mov    0x8(%ebp),%eax
  8014ef:	e8 16 f2 ff ff       	call   80070a <get_socket>
  if (!sock)
  8014f4:	85 c0                	test   %eax,%eax
  8014f6:	0f 84 4c 01 00 00    	je     801648 <lwip_sendto+0x16b>
  8014fc:	89 c7                	mov    %eax,%edi
  if (sock->conn->type==NETCONN_TCP) {
  8014fe:	8b 00                	mov    (%eax),%eax
  801500:	83 38 10             	cmpl   $0x10,(%eax)
  801503:	0f 84 b9 00 00 00    	je     8015c2 <lwip_sendto+0xe5>
  LWIP_ASSERT("lwip_sendto: size must fit in u16_t",
  801509:	81 fe ff ff 00 00    	cmp    $0xffff,%esi
  80150f:	0f 87 c3 00 00 00    	ja     8015d8 <lwip_sendto+0xfb>
  LWIP_ERROR("lwip_sendto: invalid address", (((to == NULL) && (tolen == 0)) ||
  801515:	85 db                	test   %ebx,%ebx
  801517:	0f 85 d2 00 00 00    	jne    8015ef <lwip_sendto+0x112>
  80151d:	83 7d 1c 00          	cmpl   $0x0,0x1c(%ebp)
  801521:	0f 85 c8 00 00 00    	jne    8015ef <lwip_sendto+0x112>
  buf.p = buf.ptr = NULL;
  801527:	c7 45 d8 00 00 00 00 	movl   $0x0,-0x28(%ebp)
  80152e:	c7 45 d4 00 00 00 00 	movl   $0x0,-0x2c(%ebp)
  if (to) {
  801535:	85 db                	test   %ebx,%ebx
  801537:	0f 84 d9 00 00 00    	je     801616 <lwip_sendto+0x139>
    remote_addr.addr = ((struct sockaddr_in *)to)->sin_addr.s_addr;
  80153d:	8b 43 04             	mov    0x4(%ebx),%eax
  801540:	89 45 e4             	mov    %eax,-0x1c(%ebp)
    remote_port      = ntohs(((struct sockaddr_in *)to)->sin_port);
  801543:	83 ec 0c             	sub    $0xc,%esp
  801546:	0f b7 43 02          	movzwl 0x2(%ebx),%eax
  80154a:	50                   	push   %eax
  80154b:	e8 3f 62 00 00       	call   80778f <ntohs>
    buf.addr         = &remote_addr;
  801550:	8d 55 e4             	lea    -0x1c(%ebp),%edx
  801553:	89 55 dc             	mov    %edx,-0x24(%ebp)
    buf.port         = remote_port;
  801556:	66 89 45 e0          	mov    %ax,-0x20(%ebp)
  80155a:	83 c4 10             	add    $0x10,%esp
  if ((err = netbuf_ref(&buf, data, size)) == ERR_OK) {
  80155d:	83 ec 04             	sub    $0x4,%esp
  801560:	0f b7 c6             	movzwl %si,%eax
  801563:	50                   	push   %eax
  801564:	ff 75 0c             	pushl  0xc(%ebp)
  801567:	8d 45 d4             	lea    -0x2c(%ebp),%eax
  80156a:	50                   	push   %eax
  80156b:	e8 db 0f 00 00       	call   80254b <netbuf_ref>
  801570:	0f be d8             	movsbl %al,%ebx
  801573:	83 c4 10             	add    $0x10,%esp
  801576:	85 db                	test   %ebx,%ebx
  801578:	0f 84 b1 00 00 00    	je     80162f <lwip_sendto+0x152>
  if (buf.p != NULL) {
  80157e:	8b 45 d4             	mov    -0x2c(%ebp),%eax
  801581:	85 c0                	test   %eax,%eax
  801583:	74 0c                	je     801591 <lwip_sendto+0xb4>
    pbuf_free(buf.p);
  801585:	83 ec 0c             	sub    $0xc,%esp
  801588:	50                   	push   %eax
  801589:	e8 bf 32 00 00       	call   80484d <pbuf_free>
  80158e:	83 c4 10             	add    $0x10,%esp
  sock_set_errno(sock, err_to_errno(err));
  801591:	89 da                	mov    %ebx,%edx
  801593:	f7 da                	neg    %edx
  801595:	b8 05 00 00 00       	mov    $0x5,%eax
  80159a:	83 fa 0e             	cmp    $0xe,%edx
  80159d:	77 07                	ja     8015a6 <lwip_sendto+0xc9>
  80159f:	8b 04 95 60 12 81 00 	mov    0x811260(,%edx,4),%eax
  8015a6:	89 47 10             	mov    %eax,0x10(%edi)
  8015a9:	a3 e0 b1 b3 00       	mov    %eax,0xb3b1e0
  return (err==ERR_OK?size:-1);
  8015ae:	85 db                	test   %ebx,%ebx
  8015b0:	b8 ff ff ff ff       	mov    $0xffffffff,%eax
  8015b5:	0f 45 f0             	cmovne %eax,%esi
}
  8015b8:	89 f0                	mov    %esi,%eax
  8015ba:	8d 65 f4             	lea    -0xc(%ebp),%esp
  8015bd:	5b                   	pop    %ebx
  8015be:	5e                   	pop    %esi
  8015bf:	5f                   	pop    %edi
  8015c0:	5d                   	pop    %ebp
  8015c1:	c3                   	ret    
    return lwip_send(s, data, size, flags);
  8015c2:	ff 75 14             	pushl  0x14(%ebp)
  8015c5:	56                   	push   %esi
  8015c6:	ff 75 0c             	pushl  0xc(%ebp)
  8015c9:	ff 75 08             	pushl  0x8(%ebp)
  8015cc:	e8 81 00 00 00       	call   801652 <lwip_send>
  8015d1:	89 c6                	mov    %eax,%esi
  8015d3:	83 c4 10             	add    $0x10,%esp
  8015d6:	eb e0                	jmp    8015b8 <lwip_sendto+0xdb>
  LWIP_ASSERT("lwip_sendto: size must fit in u16_t",
  8015d8:	83 ec 04             	sub    $0x4,%esp
  8015db:	68 20 12 81 00       	push   $0x811220
  8015e0:	68 97 02 00 00       	push   $0x297
  8015e5:	68 90 11 81 00       	push   $0x811190
  8015ea:	e8 64 d0 00 00       	call   80e653 <_panic>
  LWIP_ERROR("lwip_sendto: invalid address", (((to == NULL) && (tolen == 0)) ||
  8015ef:	83 7d 1c 10          	cmpl   $0x10,0x1c(%ebp)
  8015f3:	75 0a                	jne    8015ff <lwip_sendto+0x122>
  8015f5:	80 7b 01 02          	cmpb   $0x2,0x1(%ebx)
  8015f9:	0f 84 28 ff ff ff    	je     801527 <lwip_sendto+0x4a>
  8015ff:	83 ec 04             	sub    $0x4,%esp
  801602:	68 01 12 81 00       	push   $0x811201
  801607:	68 9b 02 00 00       	push   $0x29b
  80160c:	68 90 11 81 00       	push   $0x811190
  801611:	e8 3d d0 00 00       	call   80e653 <_panic>
    remote_addr.addr = 0;
  801616:	c7 45 e4 00 00 00 00 	movl   $0x0,-0x1c(%ebp)
    buf.addr         = NULL;
  80161d:	c7 45 dc 00 00 00 00 	movl   $0x0,-0x24(%ebp)
    buf.port         = 0;
  801624:	66 c7 45 e0 00 00    	movw   $0x0,-0x20(%ebp)
  80162a:	e9 2e ff ff ff       	jmp    80155d <lwip_sendto+0x80>
    err = netconn_send(sock->conn, &buf);
  80162f:	83 ec 08             	sub    $0x8,%esp
  801632:	8d 45 d4             	lea    -0x2c(%ebp),%eax
  801635:	50                   	push   %eax
  801636:	ff 37                	pushl  (%edi)
  801638:	e8 46 9b 00 00       	call   80b183 <netconn_send>
  80163d:	0f be d8             	movsbl %al,%ebx
  801640:	83 c4 10             	add    $0x10,%esp
  801643:	e9 36 ff ff ff       	jmp    80157e <lwip_sendto+0xa1>
    return -1;
  801648:	be ff ff ff ff       	mov    $0xffffffff,%esi
  80164d:	e9 66 ff ff ff       	jmp    8015b8 <lwip_sendto+0xdb>

00801652 <lwip_send>:
{
  801652:	55                   	push   %ebp
  801653:	89 e5                	mov    %esp,%ebp
  801655:	57                   	push   %edi
  801656:	56                   	push   %esi
  801657:	53                   	push   %ebx
  801658:	83 ec 0c             	sub    $0xc,%esp
  80165b:	8b 7d 08             	mov    0x8(%ebp),%edi
  80165e:	8b 5d 10             	mov    0x10(%ebp),%ebx
  sock = get_socket(s);
  801661:	89 f8                	mov    %edi,%eax
  801663:	e8 a2 f0 ff ff       	call   80070a <get_socket>
  if (!sock)
  801668:	85 c0                	test   %eax,%eax
  80166a:	74 70                	je     8016dc <lwip_send+0x8a>
  80166c:	89 c6                	mov    %eax,%esi
  if (sock->conn->type!=NETCONN_TCP) {
  80166e:	8b 00                	mov    (%eax),%eax
  801670:	83 38 10             	cmpl   $0x10,(%eax)
  801673:	74 1f                	je     801694 <lwip_send+0x42>
    return lwip_sendto(s, data, size, flags, NULL, 0);
  801675:	83 ec 08             	sub    $0x8,%esp
  801678:	6a 00                	push   $0x0
  80167a:	6a 00                	push   $0x0
  80167c:	ff 75 14             	pushl  0x14(%ebp)
  80167f:	53                   	push   %ebx
  801680:	ff 75 0c             	pushl  0xc(%ebp)
  801683:	57                   	push   %edi
  801684:	e8 54 fe ff ff       	call   8014dd <lwip_sendto>
  801689:	83 c4 20             	add    $0x20,%esp
}
  80168c:	8d 65 f4             	lea    -0xc(%ebp),%esp
  80168f:	5b                   	pop    %ebx
  801690:	5e                   	pop    %esi
  801691:	5f                   	pop    %edi
  801692:	5d                   	pop    %ebp
  801693:	c3                   	ret    
  err = netconn_write(sock->conn, data, size, NETCONN_COPY | ((flags & MSG_MORE)?NETCONN_MORE:0));
  801694:	8b 55 14             	mov    0x14(%ebp),%edx
  801697:	c1 ea 03             	shr    $0x3,%edx
  80169a:	83 e2 02             	and    $0x2,%edx
  80169d:	83 ca 01             	or     $0x1,%edx
  8016a0:	0f b6 d2             	movzbl %dl,%edx
  8016a3:	52                   	push   %edx
  8016a4:	53                   	push   %ebx
  8016a5:	ff 75 0c             	pushl  0xc(%ebp)
  8016a8:	50                   	push   %eax
  8016a9:	e8 51 9b 00 00       	call   80b1ff <netconn_write>
  sock_set_errno(sock, err_to_errno(err));
  8016ae:	0f be d0             	movsbl %al,%edx
  8016b1:	f7 da                	neg    %edx
  8016b3:	83 c4 10             	add    $0x10,%esp
  8016b6:	b9 05 00 00 00       	mov    $0x5,%ecx
  8016bb:	83 fa 0e             	cmp    $0xe,%edx
  8016be:	77 07                	ja     8016c7 <lwip_send+0x75>
  8016c0:	8b 0c 95 60 12 81 00 	mov    0x811260(,%edx,4),%ecx
  8016c7:	89 4e 10             	mov    %ecx,0x10(%esi)
  8016ca:	89 0d e0 b1 b3 00    	mov    %ecx,0xb3b1e0
  return (err==ERR_OK?size:-1);
  8016d0:	84 c0                	test   %al,%al
  8016d2:	b8 ff ff ff ff       	mov    $0xffffffff,%eax
  8016d7:	0f 44 c3             	cmove  %ebx,%eax
  8016da:	eb b0                	jmp    80168c <lwip_send+0x3a>
    return -1;
  8016dc:	b8 ff ff ff ff       	mov    $0xffffffff,%eax
  8016e1:	eb a9                	jmp    80168c <lwip_send+0x3a>

008016e3 <lwip_socket>:
{
  8016e3:	55                   	push   %ebp
  8016e4:	89 e5                	mov    %esp,%ebp
  8016e6:	56                   	push   %esi
  8016e7:	53                   	push   %ebx
  8016e8:	8b 45 0c             	mov    0xc(%ebp),%eax
  switch (type) {
  8016eb:	83 f8 02             	cmp    $0x2,%eax
  8016ee:	74 5c                	je     80174c <lwip_socket+0x69>
  8016f0:	83 f8 03             	cmp    $0x3,%eax
  8016f3:	74 16                	je     80170b <lwip_socket+0x28>
  8016f5:	83 f8 01             	cmp    $0x1,%eax
  8016f8:	74 79                	je     801773 <lwip_socket+0x90>
    set_errno(EINVAL);
  8016fa:	c7 05 e0 b1 b3 00 16 	movl   $0x16,0xb3b1e0
  801701:	00 00 00 
    return -1;
  801704:	bb ff ff ff ff       	mov    $0xffffffff,%ebx
  801709:	eb 38                	jmp    801743 <lwip_socket+0x60>
    conn = netconn_new_with_proto_and_callback(NETCONN_RAW, (u8_t)protocol, event_callback);
  80170b:	83 ec 04             	sub    $0x4,%esp
  80170e:	68 ff 08 80 00       	push   $0x8008ff
  801713:	0f b6 45 10          	movzbl 0x10(%ebp),%eax
  801717:	50                   	push   %eax
  801718:	6a 40                	push   $0x40
  80171a:	e8 53 95 00 00       	call   80ac72 <netconn_new_with_proto_and_callback>
  80171f:	89 c6                	mov    %eax,%esi
    break;
  801721:	83 c4 10             	add    $0x10,%esp
  if (!conn) {
  801724:	85 f6                	test   %esi,%esi
  801726:	74 63                	je     80178b <lwip_socket+0xa8>
  i = alloc_socket(conn);
  801728:	89 f0                	mov    %esi,%eax
  80172a:	e8 81 f3 ff ff       	call   800ab0 <alloc_socket>
  80172f:	89 c3                	mov    %eax,%ebx
  if (i == -1) {
  801731:	83 f8 ff             	cmp    $0xffffffff,%eax
  801734:	74 66                	je     80179c <lwip_socket+0xb9>
  conn->socket = i;
  801736:	89 46 1c             	mov    %eax,0x1c(%esi)
  set_errno(0);
  801739:	c7 05 e0 b1 b3 00 00 	movl   $0x0,0xb3b1e0
  801740:	00 00 00 
}
  801743:	89 d8                	mov    %ebx,%eax
  801745:	8d 65 f8             	lea    -0x8(%ebp),%esp
  801748:	5b                   	pop    %ebx
  801749:	5e                   	pop    %esi
  80174a:	5d                   	pop    %ebp
  80174b:	c3                   	ret    
    conn = netconn_new_with_callback( (protocol == IPPROTO_UDPLITE) ?
  80174c:	81 7d 10 88 00 00 00 	cmpl   $0x88,0x10(%ebp)
  801753:	0f 94 c0             	sete   %al
  801756:	0f b6 c0             	movzbl %al,%eax
  801759:	83 c0 20             	add    $0x20,%eax
  80175c:	83 ec 04             	sub    $0x4,%esp
  80175f:	68 ff 08 80 00       	push   $0x8008ff
  801764:	6a 00                	push   $0x0
  801766:	50                   	push   %eax
  801767:	e8 06 95 00 00       	call   80ac72 <netconn_new_with_proto_and_callback>
  80176c:	89 c6                	mov    %eax,%esi
    break;
  80176e:	83 c4 10             	add    $0x10,%esp
  801771:	eb b1                	jmp    801724 <lwip_socket+0x41>
    conn = netconn_new_with_callback(NETCONN_TCP, event_callback);
  801773:	83 ec 04             	sub    $0x4,%esp
  801776:	68 ff 08 80 00       	push   $0x8008ff
  80177b:	6a 00                	push   $0x0
  80177d:	6a 10                	push   $0x10
  80177f:	e8 ee 94 00 00       	call   80ac72 <netconn_new_with_proto_and_callback>
  801784:	89 c6                	mov    %eax,%esi
    break;
  801786:	83 c4 10             	add    $0x10,%esp
  801789:	eb 99                	jmp    801724 <lwip_socket+0x41>
    set_errno(ENOBUFS);
  80178b:	c7 05 e0 b1 b3 00 69 	movl   $0x69,0xb3b1e0
  801792:	00 00 00 
    return -1;
  801795:	bb ff ff ff ff       	mov    $0xffffffff,%ebx
  80179a:	eb a7                	jmp    801743 <lwip_socket+0x60>
    netconn_delete(conn);
  80179c:	83 ec 0c             	sub    $0xc,%esp
  80179f:	56                   	push   %esi
  8017a0:	e8 aa 95 00 00       	call   80ad4f <netconn_delete>
    set_errno(ENFILE);
  8017a5:	c7 05 e0 b1 b3 00 17 	movl   $0x17,0xb3b1e0
  8017ac:	00 00 00 
    return -1;
  8017af:	83 c4 10             	add    $0x10,%esp
  8017b2:	eb 8f                	jmp    801743 <lwip_socket+0x60>

008017b4 <lwip_write>:
{
  8017b4:	55                   	push   %ebp
  8017b5:	89 e5                	mov    %esp,%ebp
  8017b7:	83 ec 08             	sub    $0x8,%esp
  return lwip_send(s, data, size, 0);
  8017ba:	6a 00                	push   $0x0
  8017bc:	ff 75 10             	pushl  0x10(%ebp)
  8017bf:	ff 75 0c             	pushl  0xc(%ebp)
  8017c2:	ff 75 08             	pushl  0x8(%ebp)
  8017c5:	e8 88 fe ff ff       	call   801652 <lwip_send>
}
  8017ca:	c9                   	leave  
  8017cb:	c3                   	ret    

008017cc <lwip_select>:
{
  8017cc:	55                   	push   %ebp
  8017cd:	89 e5                	mov    %esp,%ebp
  8017cf:	57                   	push   %edi
  8017d0:	56                   	push   %esi
  8017d1:	53                   	push   %ebx
  8017d2:	83 ec 58             	sub    $0x58,%esp
  8017d5:	8b 7d 0c             	mov    0xc(%ebp),%edi
  8017d8:	8b 75 10             	mov    0x10(%ebp),%esi
  8017db:	8b 5d 14             	mov    0x14(%ebp),%ebx
  select_cb.next = 0;
  8017de:	c7 45 c4 00 00 00 00 	movl   $0x0,-0x3c(%ebp)
  select_cb.readset = readset;
  8017e5:	89 7d c8             	mov    %edi,-0x38(%ebp)
  select_cb.writeset = writeset;
  8017e8:	89 75 cc             	mov    %esi,-0x34(%ebp)
  select_cb.exceptset = exceptset;
  8017eb:	89 5d d0             	mov    %ebx,-0x30(%ebp)
  select_cb.sem_signalled = 0;
  8017ee:	c7 45 d4 00 00 00 00 	movl   $0x0,-0x2c(%ebp)
  sys_sem_wait(selectsem);
  8017f5:	ff 35 40 50 81 00    	pushl  0x815040
  8017fb:	e8 3b 39 00 00       	call   80513b <sys_sem_wait>
  if (readset)
  801800:	83 c4 10             	add    $0x10,%esp
  801803:	85 ff                	test   %edi,%edi
  801805:	0f 84 07 01 00 00    	je     801912 <lwip_select+0x146>
    lreadset = *readset;
  80180b:	8b 07                	mov    (%edi),%eax
  80180d:	89 45 e4             	mov    %eax,-0x1c(%ebp)
  if (writeset)
  801810:	85 f6                	test   %esi,%esi
  801812:	0f 84 12 01 00 00    	je     80192a <lwip_select+0x15e>
    lwriteset = *writeset;
  801818:	8b 06                	mov    (%esi),%eax
  80181a:	89 45 e0             	mov    %eax,-0x20(%ebp)
  if (exceptset)
  80181d:	85 db                	test   %ebx,%ebx
  80181f:	0f 84 1d 01 00 00    	je     801942 <lwip_select+0x176>
    lexceptset = *exceptset;
  801825:	8b 03                	mov    (%ebx),%eax
  801827:	89 45 dc             	mov    %eax,-0x24(%ebp)
  nready = lwip_selscan(maxfdp1, &lreadset, &lwriteset, &lexceptset);
  80182a:	83 ec 0c             	sub    $0xc,%esp
  80182d:	8d 45 dc             	lea    -0x24(%ebp),%eax
  801830:	50                   	push   %eax
  801831:	8d 4d e0             	lea    -0x20(%ebp),%ecx
  801834:	8d 55 e4             	lea    -0x1c(%ebp),%edx
  801837:	8b 45 08             	mov    0x8(%ebp),%eax
  80183a:	e8 10 ef ff ff       	call   80074f <lwip_selscan>
  80183f:	89 45 b4             	mov    %eax,-0x4c(%ebp)
  if (!nready) {
  801842:	83 c4 10             	add    $0x10,%esp
  801845:	85 c0                	test   %eax,%eax
  801847:	0f 85 5c 02 00 00    	jne    801aa9 <lwip_select+0x2dd>
    if (timeout && timeout->tv_sec == 0 && timeout->tv_usec == 0) {
  80184d:	83 7d 18 00          	cmpl   $0x0,0x18(%ebp)
  801851:	0f 84 93 02 00 00    	je     801aea <lwip_select+0x31e>
  801857:	8b 45 18             	mov    0x18(%ebp),%eax
  80185a:	83 38 00             	cmpl   $0x0,(%eax)
  80185d:	75 0a                	jne    801869 <lwip_select+0x9d>
  80185f:	83 78 04 00          	cmpl   $0x0,0x4(%eax)
  801863:	0f 84 f1 00 00 00    	je     80195a <lwip_select+0x18e>
    select_cb.sem = sys_sem_new(0);
  801869:	83 ec 0c             	sub    $0xc,%esp
  80186c:	6a 00                	push   $0x0
  80186e:	e8 f4 85 00 00       	call   809e67 <sys_sem_new>
  801873:	89 45 d8             	mov    %eax,-0x28(%ebp)
    select_cb.next = select_cb_list;
  801876:	a1 48 50 81 00       	mov    0x815048,%eax
  80187b:	89 45 c4             	mov    %eax,-0x3c(%ebp)
    select_cb_list = &select_cb;
  80187e:	8d 45 c4             	lea    -0x3c(%ebp),%eax
  801881:	a3 48 50 81 00       	mov    %eax,0x815048
    sys_sem_signal(selectsem);
  801886:	83 c4 04             	add    $0x4,%esp
  801889:	ff 35 40 50 81 00    	pushl  0x815040
  80188f:	e8 90 88 00 00       	call   80a124 <sys_sem_signal>
      msectimeout =  ((timeout->tv_sec * 1000) + ((timeout->tv_usec + 500)/1000));
  801894:	8b 45 18             	mov    0x18(%ebp),%eax
  801897:	8b 40 04             	mov    0x4(%eax),%eax
  80189a:	89 45 b4             	mov    %eax,-0x4c(%ebp)
  80189d:	8d 88 f4 01 00 00    	lea    0x1f4(%eax),%ecx
  8018a3:	ba d3 4d 62 10       	mov    $0x10624dd3,%edx
  8018a8:	89 c8                	mov    %ecx,%eax
  8018aa:	f7 ea                	imul   %edx
  8018ac:	c1 fa 06             	sar    $0x6,%edx
  8018af:	c1 f9 1f             	sar    $0x1f,%ecx
  8018b2:	29 ca                	sub    %ecx,%edx
  8018b4:	8b 45 18             	mov    0x18(%ebp),%eax
  8018b7:	69 00 e8 03 00 00    	imul   $0x3e8,(%eax),%eax
      if(msectimeout == 0)
  8018bd:	83 c4 10             	add    $0x10,%esp
  8018c0:	01 d0                	add    %edx,%eax
        msectimeout = 1;
  8018c2:	ba 01 00 00 00       	mov    $0x1,%edx
  8018c7:	0f 44 c2             	cmove  %edx,%eax
    i = sys_sem_wait_timeout(select_cb.sem, msectimeout);
  8018ca:	83 ec 08             	sub    $0x8,%esp
  8018cd:	50                   	push   %eax
  8018ce:	ff 75 d8             	pushl  -0x28(%ebp)
  8018d1:	e8 23 3a 00 00       	call   8052f9 <sys_sem_wait_timeout>
  8018d6:	89 45 b4             	mov    %eax,-0x4c(%ebp)
    sys_sem_wait(selectsem);
  8018d9:	83 c4 04             	add    $0x4,%esp
  8018dc:	ff 35 40 50 81 00    	pushl  0x815040
  8018e2:	e8 54 38 00 00       	call   80513b <sys_sem_wait>
    if (select_cb_list == &select_cb)
  8018e7:	a1 48 50 81 00       	mov    0x815048,%eax
  8018ec:	8d 55 c4             	lea    -0x3c(%ebp),%edx
  8018ef:	83 c4 10             	add    $0x10,%esp
        if (p_selcb->next == &select_cb) {
  8018f2:	89 d1                	mov    %edx,%ecx
    if (select_cb_list == &select_cb)
  8018f4:	39 d0                	cmp    %edx,%eax
  8018f6:	0f 84 ba 00 00 00    	je     8019b6 <lwip_select+0x1ea>
      for (p_selcb = select_cb_list; p_selcb; p_selcb = p_selcb->next) {
  8018fc:	85 c0                	test   %eax,%eax
  8018fe:	0f 84 c1 00 00 00    	je     8019c5 <lwip_select+0x1f9>
        if (p_selcb->next == &select_cb) {
  801904:	8b 10                	mov    (%eax),%edx
  801906:	39 ca                	cmp    %ecx,%edx
  801908:	0f 84 b2 00 00 00    	je     8019c0 <lwip_select+0x1f4>
      for (p_selcb = select_cb_list; p_selcb; p_selcb = p_selcb->next) {
  80190e:	89 d0                	mov    %edx,%eax
  801910:	eb ea                	jmp    8018fc <lwip_select+0x130>
    FD_ZERO(&lreadset);
  801912:	83 ec 04             	sub    $0x4,%esp
  801915:	6a 04                	push   $0x4
  801917:	6a 00                	push   $0x0
  801919:	8d 45 e4             	lea    -0x1c(%ebp),%eax
  80191c:	50                   	push   %eax
  80191d:	e8 ea d5 00 00       	call   80ef0c <memset>
  801922:	83 c4 10             	add    $0x10,%esp
  801925:	e9 e6 fe ff ff       	jmp    801810 <lwip_select+0x44>
    FD_ZERO(&lwriteset);
  80192a:	83 ec 04             	sub    $0x4,%esp
  80192d:	6a 04                	push   $0x4
  80192f:	6a 00                	push   $0x0
  801931:	8d 45 e0             	lea    -0x20(%ebp),%eax
  801934:	50                   	push   %eax
  801935:	e8 d2 d5 00 00       	call   80ef0c <memset>
  80193a:	83 c4 10             	add    $0x10,%esp
  80193d:	e9 db fe ff ff       	jmp    80181d <lwip_select+0x51>
    FD_ZERO(&lexceptset);
  801942:	83 ec 04             	sub    $0x4,%esp
  801945:	6a 04                	push   $0x4
  801947:	6a 00                	push   $0x0
  801949:	8d 45 dc             	lea    -0x24(%ebp),%eax
  80194c:	50                   	push   %eax
  80194d:	e8 ba d5 00 00       	call   80ef0c <memset>
  801952:	83 c4 10             	add    $0x10,%esp
  801955:	e9 d0 fe ff ff       	jmp    80182a <lwip_select+0x5e>
      sys_sem_signal(selectsem);
  80195a:	83 ec 0c             	sub    $0xc,%esp
  80195d:	ff 35 40 50 81 00    	pushl  0x815040
  801963:	e8 bc 87 00 00       	call   80a124 <sys_sem_signal>
      if (readset)
  801968:	83 c4 10             	add    $0x10,%esp
  80196b:	85 ff                	test   %edi,%edi
  80196d:	74 10                	je     80197f <lwip_select+0x1b3>
        FD_ZERO(readset);
  80196f:	83 ec 04             	sub    $0x4,%esp
  801972:	6a 04                	push   $0x4
  801974:	6a 00                	push   $0x0
  801976:	57                   	push   %edi
  801977:	e8 90 d5 00 00       	call   80ef0c <memset>
  80197c:	83 c4 10             	add    $0x10,%esp
      if (writeset)
  80197f:	85 f6                	test   %esi,%esi
  801981:	74 10                	je     801993 <lwip_select+0x1c7>
        FD_ZERO(writeset);
  801983:	83 ec 04             	sub    $0x4,%esp
  801986:	6a 04                	push   $0x4
  801988:	6a 00                	push   $0x0
  80198a:	56                   	push   %esi
  80198b:	e8 7c d5 00 00       	call   80ef0c <memset>
  801990:	83 c4 10             	add    $0x10,%esp
      if (exceptset)
  801993:	85 db                	test   %ebx,%ebx
  801995:	74 10                	je     8019a7 <lwip_select+0x1db>
        FD_ZERO(exceptset);
  801997:	83 ec 04             	sub    $0x4,%esp
  80199a:	6a 04                	push   $0x4
  80199c:	6a 00                	push   $0x0
  80199e:	53                   	push   %ebx
  80199f:	e8 68 d5 00 00       	call   80ef0c <memset>
  8019a4:	83 c4 10             	add    $0x10,%esp
      set_errno(0);
  8019a7:	c7 05 e0 b1 b3 00 00 	movl   $0x0,0xb3b1e0
  8019ae:	00 00 00 
      return 0;
  8019b1:	e9 29 01 00 00       	jmp    801adf <lwip_select+0x313>
      select_cb_list = select_cb.next;
  8019b6:	8b 45 c4             	mov    -0x3c(%ebp),%eax
  8019b9:	a3 48 50 81 00       	mov    %eax,0x815048
  8019be:	eb 05                	jmp    8019c5 <lwip_select+0x1f9>
          p_selcb->next = select_cb.next;
  8019c0:	8b 55 c4             	mov    -0x3c(%ebp),%edx
  8019c3:	89 10                	mov    %edx,(%eax)
    sys_sem_signal(selectsem);
  8019c5:	83 ec 0c             	sub    $0xc,%esp
  8019c8:	ff 35 40 50 81 00    	pushl  0x815040
  8019ce:	e8 51 87 00 00       	call   80a124 <sys_sem_signal>
    sys_sem_free(select_cb.sem);
  8019d3:	83 c4 04             	add    $0x4,%esp
  8019d6:	ff 75 d8             	pushl  -0x28(%ebp)
  8019d9:	e8 0a 85 00 00       	call   809ee8 <sys_sem_free>
    if (i == 0)  {
  8019de:	83 c4 10             	add    $0x10,%esp
  8019e1:	83 7d b4 00          	cmpl   $0x0,-0x4c(%ebp)
  8019e5:	75 4b                	jne    801a32 <lwip_select+0x266>
      if (readset)
  8019e7:	85 ff                	test   %edi,%edi
  8019e9:	74 10                	je     8019fb <lwip_select+0x22f>
        FD_ZERO(readset);
  8019eb:	83 ec 04             	sub    $0x4,%esp
  8019ee:	6a 04                	push   $0x4
  8019f0:	6a 00                	push   $0x0
  8019f2:	57                   	push   %edi
  8019f3:	e8 14 d5 00 00       	call   80ef0c <memset>
  8019f8:	83 c4 10             	add    $0x10,%esp
      if (writeset)
  8019fb:	85 f6                	test   %esi,%esi
  8019fd:	74 10                	je     801a0f <lwip_select+0x243>
        FD_ZERO(writeset);
  8019ff:	83 ec 04             	sub    $0x4,%esp
  801a02:	6a 04                	push   $0x4
  801a04:	6a 00                	push   $0x0
  801a06:	56                   	push   %esi
  801a07:	e8 00 d5 00 00       	call   80ef0c <memset>
  801a0c:	83 c4 10             	add    $0x10,%esp
      if (exceptset)
  801a0f:	85 db                	test   %ebx,%ebx
  801a11:	74 10                	je     801a23 <lwip_select+0x257>
        FD_ZERO(exceptset);
  801a13:	83 ec 04             	sub    $0x4,%esp
  801a16:	6a 04                	push   $0x4
  801a18:	6a 00                	push   $0x0
  801a1a:	53                   	push   %ebx
  801a1b:	e8 ec d4 00 00       	call   80ef0c <memset>
  801a20:	83 c4 10             	add    $0x10,%esp
      set_errno(0);
  801a23:	c7 05 e0 b1 b3 00 00 	movl   $0x0,0xb3b1e0
  801a2a:	00 00 00 
      return 0;
  801a2d:	e9 ad 00 00 00       	jmp    801adf <lwip_select+0x313>
    if (readset)
  801a32:	85 ff                	test   %edi,%edi
  801a34:	74 34                	je     801a6a <lwip_select+0x29e>
      lreadset = *readset;
  801a36:	8b 07                	mov    (%edi),%eax
  801a38:	89 45 e4             	mov    %eax,-0x1c(%ebp)
    if (writeset)
  801a3b:	85 f6                	test   %esi,%esi
  801a3d:	74 40                	je     801a7f <lwip_select+0x2b3>
      lwriteset = *writeset;
  801a3f:	8b 06                	mov    (%esi),%eax
  801a41:	89 45 e0             	mov    %eax,-0x20(%ebp)
    if (exceptset)
  801a44:	85 db                	test   %ebx,%ebx
  801a46:	74 4c                	je     801a94 <lwip_select+0x2c8>
      lexceptset = *exceptset;
  801a48:	8b 03                	mov    (%ebx),%eax
  801a4a:	89 45 dc             	mov    %eax,-0x24(%ebp)
    nready = lwip_selscan(maxfdp1, &lreadset, &lwriteset, &lexceptset);
  801a4d:	83 ec 0c             	sub    $0xc,%esp
  801a50:	8d 45 dc             	lea    -0x24(%ebp),%eax
  801a53:	50                   	push   %eax
  801a54:	8d 4d e0             	lea    -0x20(%ebp),%ecx
  801a57:	8d 55 e4             	lea    -0x1c(%ebp),%edx
  801a5a:	8b 45 08             	mov    0x8(%ebp),%eax
  801a5d:	e8 ed ec ff ff       	call   80074f <lwip_selscan>
  801a62:	89 45 b4             	mov    %eax,-0x4c(%ebp)
  801a65:	83 c4 10             	add    $0x10,%esp
  801a68:	eb 50                	jmp    801aba <lwip_select+0x2ee>
      FD_ZERO(&lreadset);
  801a6a:	83 ec 04             	sub    $0x4,%esp
  801a6d:	6a 04                	push   $0x4
  801a6f:	6a 00                	push   $0x0
  801a71:	8d 45 e4             	lea    -0x1c(%ebp),%eax
  801a74:	50                   	push   %eax
  801a75:	e8 92 d4 00 00       	call   80ef0c <memset>
  801a7a:	83 c4 10             	add    $0x10,%esp
  801a7d:	eb bc                	jmp    801a3b <lwip_select+0x26f>
      FD_ZERO(&lwriteset);
  801a7f:	83 ec 04             	sub    $0x4,%esp
  801a82:	6a 04                	push   $0x4
  801a84:	6a 00                	push   $0x0
  801a86:	8d 45 e0             	lea    -0x20(%ebp),%eax
  801a89:	50                   	push   %eax
  801a8a:	e8 7d d4 00 00       	call   80ef0c <memset>
  801a8f:	83 c4 10             	add    $0x10,%esp
  801a92:	eb b0                	jmp    801a44 <lwip_select+0x278>
      FD_ZERO(&lexceptset);
  801a94:	83 ec 04             	sub    $0x4,%esp
  801a97:	6a 04                	push   $0x4
  801a99:	6a 00                	push   $0x0
  801a9b:	8d 45 dc             	lea    -0x24(%ebp),%eax
  801a9e:	50                   	push   %eax
  801a9f:	e8 68 d4 00 00       	call   80ef0c <memset>
  801aa4:	83 c4 10             	add    $0x10,%esp
  801aa7:	eb a4                	jmp    801a4d <lwip_select+0x281>
    sys_sem_signal(selectsem);
  801aa9:	83 ec 0c             	sub    $0xc,%esp
  801aac:	ff 35 40 50 81 00    	pushl  0x815040
  801ab2:	e8 6d 86 00 00       	call   80a124 <sys_sem_signal>
  801ab7:	83 c4 10             	add    $0x10,%esp
  if (readset)
  801aba:	85 ff                	test   %edi,%edi
  801abc:	74 05                	je     801ac3 <lwip_select+0x2f7>
    *readset = lreadset;
  801abe:	8b 45 e4             	mov    -0x1c(%ebp),%eax
  801ac1:	89 07                	mov    %eax,(%edi)
  if (writeset)
  801ac3:	85 f6                	test   %esi,%esi
  801ac5:	74 05                	je     801acc <lwip_select+0x300>
    *writeset = lwriteset;
  801ac7:	8b 45 e0             	mov    -0x20(%ebp),%eax
  801aca:	89 06                	mov    %eax,(%esi)
  if (exceptset)
  801acc:	85 db                	test   %ebx,%ebx
  801ace:	74 05                	je     801ad5 <lwip_select+0x309>
    *exceptset = lexceptset;
  801ad0:	8b 45 dc             	mov    -0x24(%ebp),%eax
  801ad3:	89 03                	mov    %eax,(%ebx)
  set_errno(0);
  801ad5:	c7 05 e0 b1 b3 00 00 	movl   $0x0,0xb3b1e0
  801adc:	00 00 00 
}
  801adf:	8b 45 b4             	mov    -0x4c(%ebp),%eax
  801ae2:	8d 65 f4             	lea    -0xc(%ebp),%esp
  801ae5:	5b                   	pop    %ebx
  801ae6:	5e                   	pop    %esi
  801ae7:	5f                   	pop    %edi
  801ae8:	5d                   	pop    %ebp
  801ae9:	c3                   	ret    
    select_cb.sem = sys_sem_new(0);
  801aea:	83 ec 0c             	sub    $0xc,%esp
  801aed:	6a 00                	push   $0x0
  801aef:	e8 73 83 00 00       	call   809e67 <sys_sem_new>
  801af4:	89 45 d8             	mov    %eax,-0x28(%ebp)
    select_cb.next = select_cb_list;
  801af7:	a1 48 50 81 00       	mov    0x815048,%eax
  801afc:	89 45 c4             	mov    %eax,-0x3c(%ebp)
    select_cb_list = &select_cb;
  801aff:	8d 45 c4             	lea    -0x3c(%ebp),%eax
  801b02:	a3 48 50 81 00       	mov    %eax,0x815048
    sys_sem_signal(selectsem);
  801b07:	83 c4 04             	add    $0x4,%esp
  801b0a:	ff 35 40 50 81 00    	pushl  0x815040
  801b10:	e8 0f 86 00 00       	call   80a124 <sys_sem_signal>
  801b15:	83 c4 10             	add    $0x10,%esp
      msectimeout = 0;
  801b18:	b8 00 00 00 00       	mov    $0x0,%eax
  801b1d:	e9 a8 fd ff ff       	jmp    8018ca <lwip_select+0xfe>

00801b22 <lwip_shutdown>:
{
  801b22:	55                   	push   %ebp
  801b23:	89 e5                	mov    %esp,%ebp
  801b25:	83 ec 14             	sub    $0x14,%esp
  return lwip_close(s); /* XXX temporary hack until proper implementation */
  801b28:	ff 75 08             	pushl  0x8(%ebp)
  801b2b:	e8 55 f5 ff ff       	call   801085 <lwip_close>
}
  801b30:	c9                   	leave  
  801b31:	c3                   	ret    

00801b32 <lwip_getpeername>:
{
  801b32:	55                   	push   %ebp
  801b33:	89 e5                	mov    %esp,%ebp
  801b35:	83 ec 14             	sub    $0x14,%esp
  return lwip_getaddrname(s, name, namelen, 0);
  801b38:	6a 00                	push   $0x0
  801b3a:	8b 4d 10             	mov    0x10(%ebp),%ecx
  801b3d:	8b 55 0c             	mov    0xc(%ebp),%edx
  801b40:	8b 45 08             	mov    0x8(%ebp),%eax
  801b43:	e8 0c ed ff ff       	call   800854 <lwip_getaddrname>
}
  801b48:	c9                   	leave  
  801b49:	c3                   	ret    

00801b4a <lwip_getsockname>:
{
  801b4a:	55                   	push   %ebp
  801b4b:	89 e5                	mov    %esp,%ebp
  801b4d:	83 ec 14             	sub    $0x14,%esp
  return lwip_getaddrname(s, name, namelen, 1);
  801b50:	6a 01                	push   $0x1
  801b52:	8b 4d 10             	mov    0x10(%ebp),%ecx
  801b55:	8b 55 0c             	mov    0xc(%ebp),%edx
  801b58:	8b 45 08             	mov    0x8(%ebp),%eax
  801b5b:	e8 f4 ec ff ff       	call   800854 <lwip_getaddrname>
}
  801b60:	c9                   	leave  
  801b61:	c3                   	ret    

00801b62 <lwip_getsockopt>:
{
  801b62:	55                   	push   %ebp
  801b63:	89 e5                	mov    %esp,%ebp
  801b65:	57                   	push   %edi
  801b66:	56                   	push   %esi
  801b67:	53                   	push   %ebx
  801b68:	83 ec 2c             	sub    $0x2c,%esp
  801b6b:	8b 75 0c             	mov    0xc(%ebp),%esi
  801b6e:	8b 7d 18             	mov    0x18(%ebp),%edi
  struct lwip_socket *sock = get_socket(s);
  801b71:	8b 45 08             	mov    0x8(%ebp),%eax
  801b74:	e8 91 eb ff ff       	call   80070a <get_socket>
  if (!sock)
  801b79:	85 c0                	test   %eax,%eax
  801b7b:	0f 84 9c 01 00 00    	je     801d1d <lwip_getsockopt+0x1bb>
  801b81:	89 c3                	mov    %eax,%ebx
  if ((NULL == optval) || (NULL == optlen)) {
  801b83:	83 7d 14 00          	cmpl   $0x0,0x14(%ebp)
  801b87:	74 37                	je     801bc0 <lwip_getsockopt+0x5e>
  801b89:	85 ff                	test   %edi,%edi
  801b8b:	74 33                	je     801bc0 <lwip_getsockopt+0x5e>
  switch (level) {
  801b8d:	83 fe 06             	cmp    $0x6,%esi
  801b90:	0f 84 2f 01 00 00    	je     801cc5 <lwip_getsockopt+0x163>
  801b96:	81 fe ff 0f 00 00    	cmp    $0xfff,%esi
  801b9c:	74 3d                	je     801bdb <lwip_getsockopt+0x79>
      err = ENOPROTOOPT;
  801b9e:	b8 5c 00 00 00       	mov    $0x5c,%eax
  switch (level) {
  801ba3:	85 f6                	test   %esi,%esi
  801ba5:	0f 84 a2 00 00 00    	je     801c4d <lwip_getsockopt+0xeb>
    sock_set_errno(sock, err);
  801bab:	0f be c0             	movsbl %al,%eax
  801bae:	89 43 10             	mov    %eax,0x10(%ebx)
  801bb1:	a3 e0 b1 b3 00       	mov    %eax,0xb3b1e0
    return -1;
  801bb6:	b8 ff ff ff ff       	mov    $0xffffffff,%eax
  801bbb:	e9 fd 00 00 00       	jmp    801cbd <lwip_getsockopt+0x15b>
    sock_set_errno(sock, EFAULT);
  801bc0:	c7 43 10 0e 00 00 00 	movl   $0xe,0x10(%ebx)
  801bc7:	c7 05 e0 b1 b3 00 0e 	movl   $0xe,0xb3b1e0
  801bce:	00 00 00 
    return -1;
  801bd1:	b8 ff ff ff ff       	mov    $0xffffffff,%eax
  801bd6:	e9 e2 00 00 00       	jmp    801cbd <lwip_getsockopt+0x15b>
    switch (optname) {
  801bdb:	83 7d 10 20          	cmpl   $0x20,0x10(%ebp)
  801bdf:	74 5d                	je     801c3e <lwip_getsockopt+0xdc>
  801be1:	83 7d 10 20          	cmpl   $0x20,0x10(%ebp)
  801be5:	7e 41                	jle    801c28 <lwip_getsockopt+0xc6>
  801be7:	81 7d 10 07 10 00 00 	cmpl   $0x1007,0x10(%ebp)
  801bee:	7c 44                	jl     801c34 <lwip_getsockopt+0xd2>
  801bf0:	81 7d 10 08 10 00 00 	cmpl   $0x1008,0x10(%ebp)
  801bf7:	7e 45                	jle    801c3e <lwip_getsockopt+0xdc>
  801bf9:	81 7d 10 0a 10 00 00 	cmpl   $0x100a,0x10(%ebp)
  801c00:	75 32                	jne    801c34 <lwip_getsockopt+0xd2>
        err = EINVAL;
  801c02:	83 3f 04             	cmpl   $0x4,(%edi)
  801c05:	19 c0                	sbb    %eax,%eax
  801c07:	83 e0 16             	and    $0x16,%eax
      if ((sock->conn->type != NETCONN_UDP) ||
  801c0a:	8b 13                	mov    (%ebx),%edx
  801c0c:	83 3a 20             	cmpl   $0x20,(%edx)
  801c0f:	0f 85 d6 00 00 00    	jne    801ceb <lwip_getsockopt+0x189>
          ((udp_flags(sock->conn->pcb.udp) & UDP_FLAGS_UDPLITE) != 0)) {
  801c15:	8b 52 08             	mov    0x8(%edx),%edx
      if ((sock->conn->type != NETCONN_UDP) ||
  801c18:	f6 42 10 02          	testb  $0x2,0x10(%edx)
  801c1c:	0f 85 d3 00 00 00    	jne    801cf5 <lwip_getsockopt+0x193>
  if (err != ERR_OK) {
  801c22:	84 c0                	test   %al,%al
  801c24:	74 3f                	je     801c65 <lwip_getsockopt+0x103>
  801c26:	eb 83                	jmp    801bab <lwip_getsockopt+0x49>
    switch (optname) {
  801c28:	83 7d 10 02          	cmpl   $0x2,0x10(%ebp)
  801c2c:	74 10                	je     801c3e <lwip_getsockopt+0xdc>
  801c2e:	83 7d 10 08          	cmpl   $0x8,0x10(%ebp)
  801c32:	74 0a                	je     801c3e <lwip_getsockopt+0xdc>
      err = ENOPROTOOPT;
  801c34:	b8 5c 00 00 00       	mov    $0x5c,%eax
  801c39:	e9 6d ff ff ff       	jmp    801bab <lwip_getsockopt+0x49>
      if (*optlen < sizeof(int)) {
  801c3e:	83 3f 03             	cmpl   $0x3,(%edi)
  801c41:	77 22                	ja     801c65 <lwip_getsockopt+0x103>
        err = EINVAL;
  801c43:	b8 16 00 00 00       	mov    $0x16,%eax
  801c48:	e9 5e ff ff ff       	jmp    801bab <lwip_getsockopt+0x49>
    switch (optname) {
  801c4d:	8b 45 10             	mov    0x10(%ebp),%eax
  801c50:	83 e8 01             	sub    $0x1,%eax
  801c53:	83 f8 01             	cmp    $0x1,%eax
  801c56:	0f 87 a3 00 00 00    	ja     801cff <lwip_getsockopt+0x19d>
      if (*optlen < sizeof(int)) {
  801c5c:	83 3f 03             	cmpl   $0x3,(%edi)
  801c5f:	0f 86 a4 00 00 00    	jbe    801d09 <lwip_getsockopt+0x1a7>
  data.sock = sock;
  801c65:	89 5d cc             	mov    %ebx,-0x34(%ebp)
  data.level = level;
  801c68:	89 75 d4             	mov    %esi,-0x2c(%ebp)
  data.optname = optname;
  801c6b:	8b 45 10             	mov    0x10(%ebp),%eax
  801c6e:	89 45 d8             	mov    %eax,-0x28(%ebp)
  data.optval = optval;
  801c71:	8b 45 14             	mov    0x14(%ebp),%eax
  801c74:	89 45 dc             	mov    %eax,-0x24(%ebp)
  data.optlen = optlen;
  801c77:	89 7d e0             	mov    %edi,-0x20(%ebp)
  data.err = err;
  801c7a:	c6 45 e4 00          	movb   $0x0,-0x1c(%ebp)
  tcpip_callback(lwip_getsockopt_internal, &data);
  801c7e:	83 ec 04             	sub    $0x4,%esp
  801c81:	6a 01                	push   $0x1
  801c83:	8d 45 cc             	lea    -0x34(%ebp),%eax
  801c86:	50                   	push   %eax
  801c87:	68 58 0b 80 00       	push   $0x800b58
  801c8c:	e8 d8 05 00 00       	call   802269 <tcpip_callback_with_block>
  sys_arch_sem_wait(sock->conn->op_completed, 0);
  801c91:	83 c4 08             	add    $0x8,%esp
  801c94:	6a 00                	push   $0x0
  801c96:	8b 03                	mov    (%ebx),%eax
  801c98:	ff 70 10             	pushl  0x10(%eax)
  801c9b:	e8 f4 84 00 00       	call   80a194 <sys_arch_sem_wait>
  err = data.err;
  801ca0:	0f b6 45 e4          	movzbl -0x1c(%ebp),%eax
  sock_set_errno(sock, err);
  801ca4:	0f be d0             	movsbl %al,%edx
  801ca7:	89 53 10             	mov    %edx,0x10(%ebx)
  801caa:	89 15 e0 b1 b3 00    	mov    %edx,0xb3b1e0
  return err ? -1 : 0;
  801cb0:	83 c4 10             	add    $0x10,%esp
  801cb3:	84 c0                	test   %al,%al
  801cb5:	0f 95 c0             	setne  %al
  801cb8:	0f b6 c0             	movzbl %al,%eax
  801cbb:	f7 d8                	neg    %eax
}
  801cbd:	8d 65 f4             	lea    -0xc(%ebp),%esp
  801cc0:	5b                   	pop    %ebx
  801cc1:	5e                   	pop    %esi
  801cc2:	5f                   	pop    %edi
  801cc3:	5d                   	pop    %ebp
  801cc4:	c3                   	ret    
    if (*optlen < sizeof(int)) {
  801cc5:	83 3f 03             	cmpl   $0x3,(%edi)
  801cc8:	76 49                	jbe    801d13 <lwip_getsockopt+0x1b1>
    if (sock->conn->type != NETCONN_TCP)
  801cca:	8b 10                	mov    (%eax),%edx
      return 0;
  801ccc:	b8 00 00 00 00       	mov    $0x0,%eax
    if (sock->conn->type != NETCONN_TCP)
  801cd1:	83 3a 10             	cmpl   $0x10,(%edx)
  801cd4:	75 e7                	jne    801cbd <lwip_getsockopt+0x15b>
    switch (optname) {
  801cd6:	8b 45 10             	mov    0x10(%ebp),%eax
  801cd9:	83 e8 01             	sub    $0x1,%eax
  801cdc:	83 f8 01             	cmp    $0x1,%eax
  801cdf:	76 84                	jbe    801c65 <lwip_getsockopt+0x103>
      err = ENOPROTOOPT;
  801ce1:	b8 5c 00 00 00       	mov    $0x5c,%eax
  801ce6:	e9 c0 fe ff ff       	jmp    801bab <lwip_getsockopt+0x49>
  801ceb:	b8 61 00 00 00       	mov    $0x61,%eax
  801cf0:	e9 b6 fe ff ff       	jmp    801bab <lwip_getsockopt+0x49>
  801cf5:	b8 61 00 00 00       	mov    $0x61,%eax
  801cfa:	e9 ac fe ff ff       	jmp    801bab <lwip_getsockopt+0x49>
      err = ENOPROTOOPT;
  801cff:	b8 5c 00 00 00       	mov    $0x5c,%eax
  801d04:	e9 a2 fe ff ff       	jmp    801bab <lwip_getsockopt+0x49>
        err = EINVAL;
  801d09:	b8 16 00 00 00       	mov    $0x16,%eax
  801d0e:	e9 98 fe ff ff       	jmp    801bab <lwip_getsockopt+0x49>
      err = EINVAL;
  801d13:	b8 16 00 00 00       	mov    $0x16,%eax
  801d18:	e9 8e fe ff ff       	jmp    801bab <lwip_getsockopt+0x49>
    return -1;
  801d1d:	b8 ff ff ff ff       	mov    $0xffffffff,%eax
  801d22:	eb 99                	jmp    801cbd <lwip_getsockopt+0x15b>

00801d24 <lwip_setsockopt>:
{
  801d24:	55                   	push   %ebp
  801d25:	89 e5                	mov    %esp,%ebp
  801d27:	57                   	push   %edi
  801d28:	56                   	push   %esi
  801d29:	53                   	push   %ebx
  801d2a:	83 ec 2c             	sub    $0x2c,%esp
  801d2d:	8b 75 0c             	mov    0xc(%ebp),%esi
  801d30:	8b 7d 14             	mov    0x14(%ebp),%edi
  struct lwip_socket *sock = get_socket(s);
  801d33:	8b 45 08             	mov    0x8(%ebp),%eax
  801d36:	e8 cf e9 ff ff       	call   80070a <get_socket>
  if (!sock)
  801d3b:	85 c0                	test   %eax,%eax
  801d3d:	0f 84 69 01 00 00    	je     801eac <lwip_setsockopt+0x188>
  801d43:	89 c3                	mov    %eax,%ebx
  if (NULL == optval) {
  801d45:	85 ff                	test   %edi,%edi
  801d47:	74 2c                	je     801d75 <lwip_setsockopt+0x51>
  switch (level) {
  801d49:	83 fe 06             	cmp    $0x6,%esi
  801d4c:	0f 84 01 01 00 00    	je     801e53 <lwip_setsockopt+0x12f>
  801d52:	81 fe ff 0f 00 00    	cmp    $0xfff,%esi
  801d58:	74 36                	je     801d90 <lwip_setsockopt+0x6c>
    err = ENOPROTOOPT;
  801d5a:	b8 5c 00 00 00       	mov    $0x5c,%eax
  switch (level) {
  801d5f:	85 f6                	test   %esi,%esi
  801d61:	74 7b                	je     801dde <lwip_setsockopt+0xba>
    sock_set_errno(sock, err);
  801d63:	89 43 10             	mov    %eax,0x10(%ebx)
  801d66:	a3 e0 b1 b3 00       	mov    %eax,0xb3b1e0
    return -1;
  801d6b:	b8 ff ff ff ff       	mov    $0xffffffff,%eax
  801d70:	e9 d6 00 00 00       	jmp    801e4b <lwip_setsockopt+0x127>
    sock_set_errno(sock, EFAULT);
  801d75:	c7 40 10 0e 00 00 00 	movl   $0xe,0x10(%eax)
  801d7c:	c7 05 e0 b1 b3 00 0e 	movl   $0xe,0xb3b1e0
  801d83:	00 00 00 
    return -1;
  801d86:	b8 ff ff ff ff       	mov    $0xffffffff,%eax
  801d8b:	e9 bb 00 00 00       	jmp    801e4b <lwip_setsockopt+0x127>
    switch (optname) {
  801d90:	83 7d 10 20          	cmpl   $0x20,0x10(%ebp)
  801d94:	74 14                	je     801daa <lwip_setsockopt+0x86>
  801d96:	81 7d 10 0a 10 00 00 	cmpl   $0x100a,0x10(%ebp)
  801d9d:	74 18                	je     801db7 <lwip_setsockopt+0x93>
      err = ENOPROTOOPT;
  801d9f:	b8 5c 00 00 00       	mov    $0x5c,%eax
    switch (optname) {
  801da4:	83 7d 10 08          	cmpl   $0x8,0x10(%ebp)
  801da8:	75 b9                	jne    801d63 <lwip_setsockopt+0x3f>
      if (optlen < sizeof(int)) {
  801daa:	83 7d 18 03          	cmpl   $0x3,0x18(%ebp)
  801dae:	77 47                	ja     801df7 <lwip_setsockopt+0xd3>
        err = EINVAL;
  801db0:	b8 16 00 00 00       	mov    $0x16,%eax
  801db5:	eb ac                	jmp    801d63 <lwip_setsockopt+0x3f>
        err = EINVAL;
  801db7:	83 7d 18 04          	cmpl   $0x4,0x18(%ebp)
  801dbb:	19 c0                	sbb    %eax,%eax
  801dbd:	83 e0 16             	and    $0x16,%eax
      if ((sock->conn->type != NETCONN_UDP) ||
  801dc0:	8b 13                	mov    (%ebx),%edx
  801dc2:	83 3a 20             	cmpl   $0x20,(%edx)
  801dc5:	0f 85 af 00 00 00    	jne    801e7a <lwip_setsockopt+0x156>
          ((udp_flags(sock->conn->pcb.udp) & UDP_FLAGS_UDPLITE) != 0)) {
  801dcb:	8b 52 08             	mov    0x8(%edx),%edx
      if ((sock->conn->type != NETCONN_UDP) ||
  801dce:	f6 42 10 02          	testb  $0x2,0x10(%edx)
  801dd2:	0f 85 ac 00 00 00    	jne    801e84 <lwip_setsockopt+0x160>
  if (err != ERR_OK) {
  801dd8:	85 c0                	test   %eax,%eax
  801dda:	74 1b                	je     801df7 <lwip_setsockopt+0xd3>
  801ddc:	eb 85                	jmp    801d63 <lwip_setsockopt+0x3f>
    switch (optname) {
  801dde:	8b 45 10             	mov    0x10(%ebp),%eax
  801de1:	83 e8 01             	sub    $0x1,%eax
  801de4:	83 f8 01             	cmp    $0x1,%eax
  801de7:	0f 87 a1 00 00 00    	ja     801e8e <lwip_setsockopt+0x16a>
      if (optlen < sizeof(int)) {
  801ded:	83 7d 18 03          	cmpl   $0x3,0x18(%ebp)
  801df1:	0f 86 a1 00 00 00    	jbe    801e98 <lwip_setsockopt+0x174>
  data.sock = sock;
  801df7:	89 5d cc             	mov    %ebx,-0x34(%ebp)
  data.level = level;
  801dfa:	89 75 d4             	mov    %esi,-0x2c(%ebp)
  data.optname = optname;
  801dfd:	8b 45 10             	mov    0x10(%ebp),%eax
  801e00:	89 45 d8             	mov    %eax,-0x28(%ebp)
  data.optval = (void*)optval;
  801e03:	89 7d dc             	mov    %edi,-0x24(%ebp)
  data.optlen = &optlen;
  801e06:	8d 45 18             	lea    0x18(%ebp),%eax
  801e09:	89 45 e0             	mov    %eax,-0x20(%ebp)
  data.err = err;
  801e0c:	c6 45 e4 00          	movb   $0x0,-0x1c(%ebp)
  tcpip_callback(lwip_setsockopt_internal, &data);
  801e10:	83 ec 04             	sub    $0x4,%esp
  801e13:	6a 01                	push   $0x1
  801e15:	8d 45 cc             	lea    -0x34(%ebp),%eax
  801e18:	50                   	push   %eax
  801e19:	68 e9 0c 80 00       	push   $0x800ce9
  801e1e:	e8 46 04 00 00       	call   802269 <tcpip_callback_with_block>
  sys_arch_sem_wait(sock->conn->op_completed, 0);
  801e23:	83 c4 08             	add    $0x8,%esp
  801e26:	6a 00                	push   $0x0
  801e28:	8b 03                	mov    (%ebx),%eax
  801e2a:	ff 70 10             	pushl  0x10(%eax)
  801e2d:	e8 62 83 00 00       	call   80a194 <sys_arch_sem_wait>
  err = data.err;
  801e32:	0f be 45 e4          	movsbl -0x1c(%ebp),%eax
  sock_set_errno(sock, err);
  801e36:	89 43 10             	mov    %eax,0x10(%ebx)
  801e39:	a3 e0 b1 b3 00       	mov    %eax,0xb3b1e0
  return err ? -1 : 0;
  801e3e:	83 c4 10             	add    $0x10,%esp
  801e41:	85 c0                	test   %eax,%eax
  801e43:	0f 95 c0             	setne  %al
  801e46:	0f b6 c0             	movzbl %al,%eax
  801e49:	f7 d8                	neg    %eax
}
  801e4b:	8d 65 f4             	lea    -0xc(%ebp),%esp
  801e4e:	5b                   	pop    %ebx
  801e4f:	5e                   	pop    %esi
  801e50:	5f                   	pop    %edi
  801e51:	5d                   	pop    %ebp
  801e52:	c3                   	ret    
    if (optlen < sizeof(int)) {
  801e53:	83 7d 18 03          	cmpl   $0x3,0x18(%ebp)
  801e57:	76 49                	jbe    801ea2 <lwip_setsockopt+0x17e>
    if (sock->conn->type != NETCONN_TCP)
  801e59:	8b 10                	mov    (%eax),%edx
      return 0;
  801e5b:	b8 00 00 00 00       	mov    $0x0,%eax
    if (sock->conn->type != NETCONN_TCP)
  801e60:	83 3a 10             	cmpl   $0x10,(%edx)
  801e63:	75 e6                	jne    801e4b <lwip_setsockopt+0x127>
    switch (optname) {
  801e65:	8b 45 10             	mov    0x10(%ebp),%eax
  801e68:	83 e8 01             	sub    $0x1,%eax
  801e6b:	83 f8 01             	cmp    $0x1,%eax
  801e6e:	76 87                	jbe    801df7 <lwip_setsockopt+0xd3>
      err = ENOPROTOOPT;
  801e70:	b8 5c 00 00 00       	mov    $0x5c,%eax
  801e75:	e9 e9 fe ff ff       	jmp    801d63 <lwip_setsockopt+0x3f>
  801e7a:	b8 61 00 00 00       	mov    $0x61,%eax
  801e7f:	e9 df fe ff ff       	jmp    801d63 <lwip_setsockopt+0x3f>
  801e84:	b8 61 00 00 00       	mov    $0x61,%eax
  801e89:	e9 d5 fe ff ff       	jmp    801d63 <lwip_setsockopt+0x3f>
        err = ENOPROTOOPT;
  801e8e:	b8 5c 00 00 00       	mov    $0x5c,%eax
  801e93:	e9 cb fe ff ff       	jmp    801d63 <lwip_setsockopt+0x3f>
        err = EINVAL;
  801e98:	b8 16 00 00 00       	mov    $0x16,%eax
  801e9d:	e9 c1 fe ff ff       	jmp    801d63 <lwip_setsockopt+0x3f>
      err = EINVAL;
  801ea2:	b8 16 00 00 00       	mov    $0x16,%eax
  801ea7:	e9 b7 fe ff ff       	jmp    801d63 <lwip_setsockopt+0x3f>
    return -1;
  801eac:	b8 ff ff ff ff       	mov    $0xffffffff,%eax
  801eb1:	eb 98                	jmp    801e4b <lwip_setsockopt+0x127>

00801eb3 <lwip_ioctl>:

int
lwip_ioctl(int s, long cmd, void *argp)
{
  801eb3:	55                   	push   %ebp
  801eb4:	89 e5                	mov    %esp,%ebp
  801eb6:	56                   	push   %esi
  801eb7:	53                   	push   %ebx
  801eb8:	8b 5d 0c             	mov    0xc(%ebp),%ebx
  801ebb:	8b 75 10             	mov    0x10(%ebp),%esi
  struct lwip_socket *sock = get_socket(s);
  801ebe:	8b 45 08             	mov    0x8(%ebp),%eax
  801ec1:	e8 44 e8 ff ff       	call   80070a <get_socket>
  u16_t buflen = 0;

  if (!sock)
  801ec6:	85 c0                	test   %eax,%eax
  801ec8:	0f 84 ae 00 00 00    	je     801f7c <lwip_ioctl+0xc9>
    return -1;

  switch (cmd) {
  801ece:	81 fb 7e 66 04 80    	cmp    $0x8004667e,%ebx
  801ed4:	74 5d                	je     801f33 <lwip_ioctl+0x80>
  801ed6:	81 fb 7f 66 04 40    	cmp    $0x4004667f,%ebx
  801edc:	0f 85 82 00 00 00    	jne    801f64 <lwip_ioctl+0xb1>
  case FIONREAD:
    if (!argp) {
  801ee2:	85 f6                	test   %esi,%esi
  801ee4:	74 35                	je     801f1b <lwip_ioctl+0x68>
      sock_set_errno(sock, EINVAL);
      return -1;
    }

    SYS_ARCH_GET(sock->conn->recv_avail, *((u16_t*)argp));
  801ee6:	8b 10                	mov    (%eax),%edx
  801ee8:	0f b7 52 20          	movzwl 0x20(%edx),%edx
  801eec:	66 89 16             	mov    %dx,(%esi)

    /* Check if there is data left from the last recv operation. /maq 041215 */
    if (sock->lastdata) {
  801eef:	8b 48 04             	mov    0x4(%eax),%ecx
  801ef2:	85 c9                	test   %ecx,%ecx
  801ef4:	74 0d                	je     801f03 <lwip_ioctl+0x50>
      buflen = netbuf_len(sock->lastdata);
  801ef6:	8b 09                	mov    (%ecx),%ecx
      buflen -= sock->lastoffset;

      *((u16_t*)argp) += buflen;
  801ef8:	66 2b 50 08          	sub    0x8(%eax),%dx
  801efc:	66 03 51 08          	add    0x8(%ecx),%dx
  801f00:	66 89 16             	mov    %dx,(%esi)
    }

    LWIP_DEBUGF(SOCKETS_DEBUG, ("lwip_ioctl(%d, FIONREAD, %p) = %u\n", s, argp, *((u16_t*)argp)));
    sock_set_errno(sock, 0);
  801f03:	c7 40 10 00 00 00 00 	movl   $0x0,0x10(%eax)
  801f0a:	c7 05 e0 b1 b3 00 00 	movl   $0x0,0xb3b1e0
  801f11:	00 00 00 
    return 0;
  801f14:	b8 00 00 00 00       	mov    $0x0,%eax
  801f19:	eb 45                	jmp    801f60 <lwip_ioctl+0xad>
      sock_set_errno(sock, EINVAL);
  801f1b:	c7 40 10 16 00 00 00 	movl   $0x16,0x10(%eax)
  801f22:	c7 05 e0 b1 b3 00 16 	movl   $0x16,0xb3b1e0
  801f29:	00 00 00 
      return -1;
  801f2c:	b8 ff ff ff ff       	mov    $0xffffffff,%eax
  801f31:	eb 2d                	jmp    801f60 <lwip_ioctl+0xad>

  case FIONBIO:
    if (argp && *(u32_t*)argp)
  801f33:	85 f6                	test   %esi,%esi
  801f35:	74 0d                	je     801f44 <lwip_ioctl+0x91>
  801f37:	83 3e 00             	cmpl   $0x0,(%esi)
  801f3a:	74 08                	je     801f44 <lwip_ioctl+0x91>
      sock->flags |= O_NONBLOCK;
  801f3c:	66 81 48 0e 00 08    	orw    $0x800,0xe(%eax)
  801f42:	eb 06                	jmp    801f4a <lwip_ioctl+0x97>
    else
      sock->flags &= ~O_NONBLOCK;
  801f44:	66 81 60 0e ff f7    	andw   $0xf7ff,0xe(%eax)
    LWIP_DEBUGF(SOCKETS_DEBUG, ("lwip_ioctl(%d, FIONBIO, %d)\n", s, !!(sock->flags & O_NONBLOCK)));
    sock_set_errno(sock, 0);
  801f4a:	c7 40 10 00 00 00 00 	movl   $0x0,0x10(%eax)
  801f51:	c7 05 e0 b1 b3 00 00 	movl   $0x0,0xb3b1e0
  801f58:	00 00 00 
    return 0;
  801f5b:	b8 00 00 00 00       	mov    $0x0,%eax
  default:
    LWIP_DEBUGF(SOCKETS_DEBUG, ("lwip_ioctl(%d, UNIMPL: 0x%lx, %p)\n", s, cmd, argp));
    sock_set_errno(sock, ENOSYS); /* not yet implemented */
    return -1;
  } /* switch (cmd) */
}
  801f60:	5b                   	pop    %ebx
  801f61:	5e                   	pop    %esi
  801f62:	5d                   	pop    %ebp
  801f63:	c3                   	ret    
    sock_set_errno(sock, ENOSYS); /* not yet implemented */
  801f64:	c7 40 10 26 00 00 00 	movl   $0x26,0x10(%eax)
  801f6b:	c7 05 e0 b1 b3 00 26 	movl   $0x26,0xb3b1e0
  801f72:	00 00 00 
    return -1;
  801f75:	b8 ff ff ff ff       	mov    $0xffffffff,%eax
  801f7a:	eb e4                	jmp    801f60 <lwip_ioctl+0xad>
    return -1;
  801f7c:	b8 ff ff ff ff       	mov    $0xffffffff,%eax
  801f81:	eb dd                	jmp    801f60 <lwip_ioctl+0xad>

00801f83 <tcpip_tcp_timer>:
 *
 * @param arg unused argument
 */
static void
tcpip_tcp_timer(void *arg)
{
  801f83:	55                   	push   %ebp
  801f84:	89 e5                	mov    %esp,%ebp
  801f86:	83 ec 08             	sub    $0x8,%esp
  LWIP_UNUSED_ARG(arg);

  /* call TCP timer handler */
  tcp_tmr();
  801f89:	e8 0a 42 00 00       	call   806198 <tcp_tmr>
  /* timer still needed? */
  if (tcp_active_pcbs || tcp_tw_pcbs) {
  801f8e:	83 3d 3c b2 b3 00 00 	cmpl   $0x0,0xb3b23c
  801f95:	75 09                	jne    801fa0 <tcpip_tcp_timer+0x1d>
  801f97:	83 3d 50 b2 b3 00 00 	cmpl   $0x0,0xb3b250
  801f9e:	74 19                	je     801fb9 <tcpip_tcp_timer+0x36>
    /* restart timer */
    sys_timeout(TCP_TMR_INTERVAL, tcpip_tcp_timer, NULL);
  801fa0:	83 ec 04             	sub    $0x4,%esp
  801fa3:	6a 00                	push   $0x0
  801fa5:	68 83 1f 80 00       	push   $0x801f83
  801faa:	68 fa 00 00 00       	push   $0xfa
  801faf:	e8 16 32 00 00       	call   8051ca <sys_timeout>
  801fb4:	83 c4 10             	add    $0x10,%esp
  } else {
    /* disable timer */
    tcpip_tcp_timer_active = 0;
  }
}
  801fb7:	c9                   	leave  
  801fb8:	c3                   	ret    
    tcpip_tcp_timer_active = 0;
  801fb9:	c7 05 e0 52 81 00 00 	movl   $0x0,0x8152e0
  801fc0:	00 00 00 
}
  801fc3:	eb f2                	jmp    801fb7 <tcpip_tcp_timer+0x34>

00801fc5 <tcpip_thread>:
 *
 * @param arg unused argument
 */
static void
tcpip_thread(void *arg)
{
  801fc5:	55                   	push   %ebp
  801fc6:	89 e5                	mov    %esp,%ebp
  801fc8:	53                   	push   %ebx
  801fc9:	83 ec 18             	sub    $0x18,%esp
  struct tcpip_msg *msg;
  LWIP_UNUSED_ARG(arg);

#if IP_REASSEMBLY
  sys_timeout(IP_TMR_INTERVAL, ip_reass_timer, NULL);
  801fcc:	6a 00                	push   $0x0
  801fce:	68 80 21 80 00       	push   $0x802180
  801fd3:	68 e8 03 00 00       	push   $0x3e8
  801fd8:	e8 ed 31 00 00       	call   8051ca <sys_timeout>
#endif /* IP_REASSEMBLY */
#if LWIP_ARP
  sys_timeout(ARP_TMR_INTERVAL, arp_timer, NULL);
  801fdd:	83 c4 0c             	add    $0xc,%esp
  801fe0:	6a 00                	push   $0x0
  801fe2:	68 5c 21 80 00       	push   $0x80215c
  801fe7:	68 88 13 00 00       	push   $0x1388
  801fec:	e8 d9 31 00 00       	call   8051ca <sys_timeout>
#endif /* LWIP_ARP */
#if LWIP_DHCP
  sys_timeout(DHCP_COARSE_TIMER_MSECS, dhcp_timer_coarse, NULL);
  801ff1:	83 c4 0c             	add    $0xc,%esp
  801ff4:	6a 00                	push   $0x0
  801ff6:	68 38 21 80 00       	push   $0x802138
  801ffb:	68 60 ea 00 00       	push   $0xea60
  802000:	e8 c5 31 00 00       	call   8051ca <sys_timeout>
  sys_timeout(DHCP_FINE_TIMER_MSECS, dhcp_timer_fine, NULL);
  802005:	83 c4 0c             	add    $0xc,%esp
  802008:	6a 00                	push   $0x0
  80200a:	68 14 21 80 00       	push   $0x802114
  80200f:	68 f4 01 00 00       	push   $0x1f4
  802014:	e8 b1 31 00 00       	call   8051ca <sys_timeout>
#endif /* LWIP_IGMP */
#if LWIP_DNS
  sys_timeout(DNS_TMR_INTERVAL, dns_timer, NULL);
#endif /* LWIP_DNS */

  if (tcpip_init_done != NULL) {
  802019:	a1 e8 52 81 00       	mov    0x8152e8,%eax
  80201e:	83 c4 10             	add    $0x10,%esp
  802021:	85 c0                	test   %eax,%eax
  802023:	74 0e                	je     802033 <tcpip_thread+0x6e>
    tcpip_init_done(tcpip_init_done_arg);
  802025:	83 ec 0c             	sub    $0xc,%esp
  802028:	ff 35 e4 52 81 00    	pushl  0x8152e4
  80202e:	ff d0                	call   *%eax
  802030:	83 c4 10             	add    $0x10,%esp
  }

  LOCK_TCPIP_CORE();
  while (1) {                          /* MAIN Loop */
    sys_mbox_fetch(mbox, (void *)&msg);
  802033:	8d 5d f4             	lea    -0xc(%ebp),%ebx
  802036:	eb 0f                	jmp    802047 <tcpip_thread+0x82>
    switch (msg->type) {
#if LWIP_NETCONN
    case TCPIP_MSG_API:
      LWIP_DEBUGF(TCPIP_DEBUG, ("tcpip_thread: API message %p\n", (void *)msg));
      msg->msg.apimsg->function(&(msg->msg.apimsg->msg));
  802038:	8b 42 08             	mov    0x8(%edx),%eax
  80203b:	83 ec 0c             	sub    $0xc,%esp
  80203e:	8d 50 04             	lea    0x4(%eax),%edx
  802041:	52                   	push   %edx
  802042:	ff 10                	call   *(%eax)
      break;
  802044:	83 c4 10             	add    $0x10,%esp
    sys_mbox_fetch(mbox, (void *)&msg);
  802047:	83 ec 08             	sub    $0x8,%esp
  80204a:	53                   	push   %ebx
  80204b:	ff 35 00 40 81 00    	pushl  0x814000
  802051:	e8 50 30 00 00       	call   8050a6 <sys_mbox_fetch>
    switch (msg->type) {
  802056:	8b 55 f4             	mov    -0xc(%ebp),%edx
  802059:	83 c4 10             	add    $0x10,%esp
  80205c:	8b 02                	mov    (%edx),%eax
  80205e:	83 f8 01             	cmp    $0x1,%eax
  802061:	74 3f                	je     8020a2 <tcpip_thread+0xdd>
  802063:	83 f8 01             	cmp    $0x1,%eax
  802066:	72 d0                	jb     802038 <tcpip_thread+0x73>
  802068:	83 f8 02             	cmp    $0x2,%eax
  80206b:	74 73                	je     8020e0 <tcpip_thread+0x11b>
  80206d:	83 f8 03             	cmp    $0x3,%eax
  802070:	75 d5                	jne    802047 <tcpip_thread+0x82>
      break;

    case TCPIP_MSG_TIMEOUT:
      LWIP_DEBUGF(TCPIP_DEBUG, ("tcpip_thread: TIMEOUT %p\n", (void *)msg));

      if(msg->msg.tmo.msecs != 0xffffffff)
  802072:	8b 42 08             	mov    0x8(%edx),%eax
  802075:	83 f8 ff             	cmp    $0xffffffff,%eax
  802078:	0f 84 80 00 00 00    	je     8020fe <tcpip_thread+0x139>
        sys_timeout (msg->msg.tmo.msecs, msg->msg.tmo.h, msg->msg.tmo.arg);
  80207e:	83 ec 04             	sub    $0x4,%esp
  802081:	ff 72 10             	pushl  0x10(%edx)
  802084:	ff 72 0c             	pushl  0xc(%edx)
  802087:	50                   	push   %eax
  802088:	e8 3d 31 00 00       	call   8051ca <sys_timeout>
  80208d:	83 c4 10             	add    $0x10,%esp
      else
        sys_untimeout (msg->msg.tmo.h, msg->msg.tmo.arg);
      memp_free(MEMP_TCPIP_MSG_API, msg);
  802090:	83 ec 08             	sub    $0x8,%esp
  802093:	ff 75 f4             	pushl  -0xc(%ebp)
  802096:	6a 08                	push   $0x8
  802098:	e8 41 24 00 00       	call   8044de <memp_free>
      break;
  80209d:	83 c4 10             	add    $0x10,%esp
  8020a0:	eb a5                	jmp    802047 <tcpip_thread+0x82>
      if (msg->msg.inp.netif->flags & NETIF_FLAG_ETHARP) {
  8020a2:	8b 42 0c             	mov    0xc(%edx),%eax
  8020a5:	f6 40 2e 20          	testb  $0x20,0x2e(%eax)
  8020a9:	74 24                	je     8020cf <tcpip_thread+0x10a>
        ethernet_input(msg->msg.inp.p, msg->msg.inp.netif);
  8020ab:	83 ec 08             	sub    $0x8,%esp
  8020ae:	50                   	push   %eax
  8020af:	ff 72 08             	pushl  0x8(%edx)
  8020b2:	e8 06 7c 00 00       	call   809cbd <ethernet_input>
  8020b7:	83 c4 10             	add    $0x10,%esp
      memp_free(MEMP_TCPIP_MSG_INPKT, msg);
  8020ba:	83 ec 08             	sub    $0x8,%esp
  8020bd:	ff 75 f4             	pushl  -0xc(%ebp)
  8020c0:	6a 09                	push   $0x9
  8020c2:	e8 17 24 00 00       	call   8044de <memp_free>
      break;
  8020c7:	83 c4 10             	add    $0x10,%esp
  8020ca:	e9 78 ff ff ff       	jmp    802047 <tcpip_thread+0x82>
      { ip_input(msg->msg.inp.p, msg->msg.inp.netif);
  8020cf:	83 ec 08             	sub    $0x8,%esp
  8020d2:	50                   	push   %eax
  8020d3:	ff 72 08             	pushl  0x8(%edx)
  8020d6:	e8 ff 44 00 00       	call   8065da <ip_input>
  8020db:	83 c4 10             	add    $0x10,%esp
  8020de:	eb da                	jmp    8020ba <tcpip_thread+0xf5>
      msg->msg.cb.f(msg->msg.cb.ctx);
  8020e0:	83 ec 0c             	sub    $0xc,%esp
  8020e3:	ff 72 0c             	pushl  0xc(%edx)
  8020e6:	ff 52 08             	call   *0x8(%edx)
      memp_free(MEMP_TCPIP_MSG_API, msg);
  8020e9:	83 c4 08             	add    $0x8,%esp
  8020ec:	ff 75 f4             	pushl  -0xc(%ebp)
  8020ef:	6a 08                	push   $0x8
  8020f1:	e8 e8 23 00 00       	call   8044de <memp_free>
      break;
  8020f6:	83 c4 10             	add    $0x10,%esp
  8020f9:	e9 49 ff ff ff       	jmp    802047 <tcpip_thread+0x82>
        sys_untimeout (msg->msg.tmo.h, msg->msg.tmo.arg);
  8020fe:	83 ec 08             	sub    $0x8,%esp
  802101:	ff 72 10             	pushl  0x10(%edx)
  802104:	ff 72 0c             	pushl  0xc(%edx)
  802107:	e8 6d 31 00 00       	call   805279 <sys_untimeout>
  80210c:	83 c4 10             	add    $0x10,%esp
  80210f:	e9 7c ff ff ff       	jmp    802090 <tcpip_thread+0xcb>

00802114 <dhcp_timer_fine>:
{
  802114:	55                   	push   %ebp
  802115:	89 e5                	mov    %esp,%ebp
  802117:	83 ec 08             	sub    $0x8,%esp
  dhcp_fine_tmr();
  80211a:	e8 5a 1b 00 00       	call   803c79 <dhcp_fine_tmr>
  sys_timeout(DHCP_FINE_TIMER_MSECS, dhcp_timer_fine, NULL);
  80211f:	83 ec 04             	sub    $0x4,%esp
  802122:	6a 00                	push   $0x0
  802124:	68 14 21 80 00       	push   $0x802114
  802129:	68 f4 01 00 00       	push   $0x1f4
  80212e:	e8 97 30 00 00       	call   8051ca <sys_timeout>
}
  802133:	83 c4 10             	add    $0x10,%esp
  802136:	c9                   	leave  
  802137:	c3                   	ret    

00802138 <dhcp_timer_coarse>:
{
  802138:	55                   	push   %ebp
  802139:	89 e5                	mov    %esp,%ebp
  80213b:	83 ec 08             	sub    $0x8,%esp
  dhcp_coarse_tmr();
  80213e:	e8 6a 19 00 00       	call   803aad <dhcp_coarse_tmr>
  sys_timeout(DHCP_COARSE_TIMER_MSECS, dhcp_timer_coarse, NULL);
  802143:	83 ec 04             	sub    $0x4,%esp
  802146:	6a 00                	push   $0x0
  802148:	68 38 21 80 00       	push   $0x802138
  80214d:	68 60 ea 00 00       	push   $0xea60
  802152:	e8 73 30 00 00       	call   8051ca <sys_timeout>
}
  802157:	83 c4 10             	add    $0x10,%esp
  80215a:	c9                   	leave  
  80215b:	c3                   	ret    

0080215c <arp_timer>:
{
  80215c:	55                   	push   %ebp
  80215d:	89 e5                	mov    %esp,%ebp
  80215f:	83 ec 08             	sub    $0x8,%esp
  etharp_tmr();
  802162:	e8 2a 74 00 00       	call   809591 <etharp_tmr>
  sys_timeout(ARP_TMR_INTERVAL, arp_timer, NULL);
  802167:	83 ec 04             	sub    $0x4,%esp
  80216a:	6a 00                	push   $0x0
  80216c:	68 5c 21 80 00       	push   $0x80215c
  802171:	68 88 13 00 00       	push   $0x1388
  802176:	e8 4f 30 00 00       	call   8051ca <sys_timeout>
}
  80217b:	83 c4 10             	add    $0x10,%esp
  80217e:	c9                   	leave  
  80217f:	c3                   	ret    

00802180 <ip_reass_timer>:
{
  802180:	55                   	push   %ebp
  802181:	89 e5                	mov    %esp,%ebp
  802183:	83 ec 08             	sub    $0x8,%esp
  ip_reass_tmr();
  802186:	e8 38 4b 00 00       	call   806cc3 <ip_reass_tmr>
  sys_timeout(IP_TMR_INTERVAL, ip_reass_timer, NULL);
  80218b:	83 ec 04             	sub    $0x4,%esp
  80218e:	6a 00                	push   $0x0
  802190:	68 80 21 80 00       	push   $0x802180
  802195:	68 e8 03 00 00       	push   $0x3e8
  80219a:	e8 2b 30 00 00       	call   8051ca <sys_timeout>
}
  80219f:	83 c4 10             	add    $0x10,%esp
  8021a2:	c9                   	leave  
  8021a3:	c3                   	ret    

008021a4 <pbuf_free_int>:
 *
 * @param p The pbuf (chain) to be dereferenced.
 */
static void
pbuf_free_int(void *p)
{
  8021a4:	55                   	push   %ebp
  8021a5:	89 e5                	mov    %esp,%ebp
  8021a7:	83 ec 14             	sub    $0x14,%esp
  struct pbuf *q = p;
  pbuf_free(q);
  8021aa:	ff 75 08             	pushl  0x8(%ebp)
  8021ad:	e8 9b 26 00 00       	call   80484d <pbuf_free>
}
  8021b2:	83 c4 10             	add    $0x10,%esp
  8021b5:	c9                   	leave  
  8021b6:	c3                   	ret    

008021b7 <tcp_timer_needed>:
  if (!tcpip_tcp_timer_active && (tcp_active_pcbs || tcp_tw_pcbs)) {
  8021b7:	83 3d e0 52 81 00 00 	cmpl   $0x0,0x8152e0
  8021be:	75 38                	jne    8021f8 <tcp_timer_needed+0x41>
  8021c0:	83 3d 3c b2 b3 00 00 	cmpl   $0x0,0xb3b23c
  8021c7:	74 26                	je     8021ef <tcp_timer_needed+0x38>
{
  8021c9:	55                   	push   %ebp
  8021ca:	89 e5                	mov    %esp,%ebp
  8021cc:	83 ec 0c             	sub    $0xc,%esp
    tcpip_tcp_timer_active = 1;
  8021cf:	c7 05 e0 52 81 00 01 	movl   $0x1,0x8152e0
  8021d6:	00 00 00 
    sys_timeout(TCP_TMR_INTERVAL, tcpip_tcp_timer, NULL);
  8021d9:	6a 00                	push   $0x0
  8021db:	68 83 1f 80 00       	push   $0x801f83
  8021e0:	68 fa 00 00 00       	push   $0xfa
  8021e5:	e8 e0 2f 00 00       	call   8051ca <sys_timeout>
  8021ea:	83 c4 10             	add    $0x10,%esp
}
  8021ed:	c9                   	leave  
  8021ee:	c3                   	ret    
  if (!tcpip_tcp_timer_active && (tcp_active_pcbs || tcp_tw_pcbs)) {
  8021ef:	83 3d 50 b2 b3 00 00 	cmpl   $0x0,0xb3b250
  8021f6:	75 d1                	jne    8021c9 <tcp_timer_needed+0x12>
  8021f8:	f3 c3                	repz ret 

008021fa <tcpip_input>:
  if (mbox != SYS_MBOX_NULL) {
  8021fa:	83 3d 00 40 81 00 ff 	cmpl   $0xffffffff,0x814000
  802201:	74 59                	je     80225c <tcpip_input+0x62>
{
  802203:	55                   	push   %ebp
  802204:	89 e5                	mov    %esp,%ebp
  802206:	53                   	push   %ebx
  802207:	83 ec 10             	sub    $0x10,%esp
    msg = memp_malloc(MEMP_TCPIP_MSG_INPKT);
  80220a:	6a 09                	push   $0x9
  80220c:	e8 77 22 00 00       	call   804488 <memp_malloc>
  802211:	89 c3                	mov    %eax,%ebx
    if (msg == NULL) {
  802213:	83 c4 10             	add    $0x10,%esp
  802216:	85 c0                	test   %eax,%eax
  802218:	74 48                	je     802262 <tcpip_input+0x68>
    msg->type = TCPIP_MSG_INPKT;
  80221a:	c7 00 01 00 00 00    	movl   $0x1,(%eax)
    msg->msg.inp.p = p;
  802220:	8b 45 08             	mov    0x8(%ebp),%eax
  802223:	89 43 08             	mov    %eax,0x8(%ebx)
    msg->msg.inp.netif = inp;
  802226:	8b 45 0c             	mov    0xc(%ebp),%eax
  802229:	89 43 0c             	mov    %eax,0xc(%ebx)
    if (sys_mbox_trypost(mbox, msg) != ERR_OK) {
  80222c:	83 ec 08             	sub    $0x8,%esp
  80222f:	53                   	push   %ebx
  802230:	ff 35 00 40 81 00    	pushl  0x814000
  802236:	e8 69 80 00 00       	call   80a2a4 <sys_mbox_trypost>
  80223b:	83 c4 10             	add    $0x10,%esp
  80223e:	84 c0                	test   %al,%al
  802240:	75 05                	jne    802247 <tcpip_input+0x4d>
}
  802242:	8b 5d fc             	mov    -0x4(%ebp),%ebx
  802245:	c9                   	leave  
  802246:	c3                   	ret    
      memp_free(MEMP_TCPIP_MSG_INPKT, msg);
  802247:	83 ec 08             	sub    $0x8,%esp
  80224a:	53                   	push   %ebx
  80224b:	6a 09                	push   $0x9
  80224d:	e8 8c 22 00 00       	call   8044de <memp_free>
      return ERR_MEM;
  802252:	83 c4 10             	add    $0x10,%esp
  802255:	b8 ff ff ff ff       	mov    $0xffffffff,%eax
  80225a:	eb e6                	jmp    802242 <tcpip_input+0x48>
  return ERR_VAL;
  80225c:	b8 f7 ff ff ff       	mov    $0xfffffff7,%eax
}
  802261:	c3                   	ret    
      return ERR_MEM;
  802262:	b8 ff ff ff ff       	mov    $0xffffffff,%eax
  802267:	eb d9                	jmp    802242 <tcpip_input+0x48>

00802269 <tcpip_callback_with_block>:
{
  802269:	55                   	push   %ebp
  80226a:	89 e5                	mov    %esp,%ebp
  80226c:	56                   	push   %esi
  80226d:	53                   	push   %ebx
  80226e:	8b 75 10             	mov    0x10(%ebp),%esi
  if (mbox != SYS_MBOX_NULL) {
  802271:	83 3d 00 40 81 00 ff 	cmpl   $0xffffffff,0x814000
  802278:	74 76                	je     8022f0 <tcpip_callback_with_block+0x87>
    msg = memp_malloc(MEMP_TCPIP_MSG_API);
  80227a:	83 ec 0c             	sub    $0xc,%esp
  80227d:	6a 08                	push   $0x8
  80227f:	e8 04 22 00 00       	call   804488 <memp_malloc>
  802284:	89 c3                	mov    %eax,%ebx
    if (msg == NULL) {
  802286:	83 c4 10             	add    $0x10,%esp
  802289:	85 c0                	test   %eax,%eax
  80228b:	74 6a                	je     8022f7 <tcpip_callback_with_block+0x8e>
    msg->type = TCPIP_MSG_CALLBACK;
  80228d:	c7 00 02 00 00 00    	movl   $0x2,(%eax)
    msg->msg.cb.f = f;
  802293:	8b 45 08             	mov    0x8(%ebp),%eax
  802296:	89 43 08             	mov    %eax,0x8(%ebx)
    msg->msg.cb.ctx = ctx;
  802299:	8b 45 0c             	mov    0xc(%ebp),%eax
  80229c:	89 43 0c             	mov    %eax,0xc(%ebx)
    if (block) {
  80229f:	89 f0                	mov    %esi,%eax
  8022a1:	84 c0                	test   %al,%al
  8022a3:	75 1d                	jne    8022c2 <tcpip_callback_with_block+0x59>
      if (sys_mbox_trypost(mbox, msg) != ERR_OK) {
  8022a5:	83 ec 08             	sub    $0x8,%esp
  8022a8:	53                   	push   %ebx
  8022a9:	ff 35 00 40 81 00    	pushl  0x814000
  8022af:	e8 f0 7f 00 00       	call   80a2a4 <sys_mbox_trypost>
  8022b4:	83 c4 10             	add    $0x10,%esp
  8022b7:	84 c0                	test   %al,%al
  8022b9:	75 20                	jne    8022db <tcpip_callback_with_block+0x72>
}
  8022bb:	8d 65 f8             	lea    -0x8(%ebp),%esp
  8022be:	5b                   	pop    %ebx
  8022bf:	5e                   	pop    %esi
  8022c0:	5d                   	pop    %ebp
  8022c1:	c3                   	ret    
      sys_mbox_post(mbox, msg);
  8022c2:	83 ec 08             	sub    $0x8,%esp
  8022c5:	53                   	push   %ebx
  8022c6:	ff 35 00 40 81 00    	pushl  0x814000
  8022cc:	e8 98 80 00 00       	call   80a369 <sys_mbox_post>
  8022d1:	83 c4 10             	add    $0x10,%esp
    return ERR_OK;
  8022d4:	b8 00 00 00 00       	mov    $0x0,%eax
  8022d9:	eb e0                	jmp    8022bb <tcpip_callback_with_block+0x52>
        memp_free(MEMP_TCPIP_MSG_API, msg);
  8022db:	83 ec 08             	sub    $0x8,%esp
  8022de:	53                   	push   %ebx
  8022df:	6a 08                	push   $0x8
  8022e1:	e8 f8 21 00 00       	call   8044de <memp_free>
        return ERR_MEM;
  8022e6:	83 c4 10             	add    $0x10,%esp
  8022e9:	b8 ff ff ff ff       	mov    $0xffffffff,%eax
  8022ee:	eb cb                	jmp    8022bb <tcpip_callback_with_block+0x52>
  return ERR_VAL;
  8022f0:	b8 f7 ff ff ff       	mov    $0xfffffff7,%eax
  8022f5:	eb c4                	jmp    8022bb <tcpip_callback_with_block+0x52>
      return ERR_MEM;
  8022f7:	b8 ff ff ff ff       	mov    $0xffffffff,%eax
  8022fc:	eb bd                	jmp    8022bb <tcpip_callback_with_block+0x52>

008022fe <tcpip_timeout>:
  if (mbox != SYS_MBOX_NULL) {
  8022fe:	83 3d 00 40 81 00 ff 	cmpl   $0xffffffff,0x814000
  802305:	74 45                	je     80234c <tcpip_timeout+0x4e>
{
  802307:	55                   	push   %ebp
  802308:	89 e5                	mov    %esp,%ebp
  80230a:	83 ec 14             	sub    $0x14,%esp
    msg = memp_malloc(MEMP_TCPIP_MSG_API);
  80230d:	6a 08                	push   $0x8
  80230f:	e8 74 21 00 00       	call   804488 <memp_malloc>
    if (msg == NULL) {
  802314:	83 c4 10             	add    $0x10,%esp
  802317:	85 c0                	test   %eax,%eax
  802319:	74 37                	je     802352 <tcpip_timeout+0x54>
    msg->type = TCPIP_MSG_TIMEOUT;
  80231b:	c7 00 03 00 00 00    	movl   $0x3,(%eax)
    msg->msg.tmo.msecs = msecs;
  802321:	8b 55 08             	mov    0x8(%ebp),%edx
  802324:	89 50 08             	mov    %edx,0x8(%eax)
    msg->msg.tmo.h = h;
  802327:	8b 55 0c             	mov    0xc(%ebp),%edx
  80232a:	89 50 0c             	mov    %edx,0xc(%eax)
    msg->msg.tmo.arg = arg;
  80232d:	8b 55 10             	mov    0x10(%ebp),%edx
  802330:	89 50 10             	mov    %edx,0x10(%eax)
    sys_mbox_post(mbox, msg);
  802333:	83 ec 08             	sub    $0x8,%esp
  802336:	50                   	push   %eax
  802337:	ff 35 00 40 81 00    	pushl  0x814000
  80233d:	e8 27 80 00 00       	call   80a369 <sys_mbox_post>
    return ERR_OK;
  802342:	83 c4 10             	add    $0x10,%esp
  802345:	b8 00 00 00 00       	mov    $0x0,%eax
}
  80234a:	c9                   	leave  
  80234b:	c3                   	ret    
  return ERR_VAL;
  80234c:	b8 f7 ff ff ff       	mov    $0xfffffff7,%eax
}
  802351:	c3                   	ret    
      return ERR_MEM;
  802352:	b8 ff ff ff ff       	mov    $0xffffffff,%eax
  802357:	eb f1                	jmp    80234a <tcpip_timeout+0x4c>

00802359 <tcpip_apimsg>:
{
  802359:	55                   	push   %ebp
  80235a:	89 e5                	mov    %esp,%ebp
  80235c:	53                   	push   %ebx
  80235d:	83 ec 24             	sub    $0x24,%esp
  802360:	8b 5d 08             	mov    0x8(%ebp),%ebx
  if (mbox != SYS_MBOX_NULL) {
  802363:	a1 00 40 81 00       	mov    0x814000,%eax
  802368:	83 f8 ff             	cmp    $0xffffffff,%eax
  80236b:	74 34                	je     8023a1 <tcpip_apimsg+0x48>
    msg.type = TCPIP_MSG_API;
  80236d:	c7 45 e4 00 00 00 00 	movl   $0x0,-0x1c(%ebp)
    msg.msg.apimsg = apimsg;
  802374:	89 5d ec             	mov    %ebx,-0x14(%ebp)
    sys_mbox_post(mbox, &msg);
  802377:	83 ec 08             	sub    $0x8,%esp
  80237a:	8d 55 e4             	lea    -0x1c(%ebp),%edx
  80237d:	52                   	push   %edx
  80237e:	50                   	push   %eax
  80237f:	e8 e5 7f 00 00       	call   80a369 <sys_mbox_post>
    sys_arch_sem_wait(apimsg->msg.conn->op_completed, 0);
  802384:	83 c4 08             	add    $0x8,%esp
  802387:	6a 00                	push   $0x0
  802389:	8b 43 04             	mov    0x4(%ebx),%eax
  80238c:	ff 70 10             	pushl  0x10(%eax)
  80238f:	e8 00 7e 00 00       	call   80a194 <sys_arch_sem_wait>
    return ERR_OK;
  802394:	83 c4 10             	add    $0x10,%esp
  802397:	b8 00 00 00 00       	mov    $0x0,%eax
}
  80239c:	8b 5d fc             	mov    -0x4(%ebp),%ebx
  80239f:	c9                   	leave  
  8023a0:	c3                   	ret    
  return ERR_VAL;
  8023a1:	b8 f7 ff ff ff       	mov    $0xfffffff7,%eax
  8023a6:	eb f4                	jmp    80239c <tcpip_apimsg+0x43>

008023a8 <tcpip_init>:
{
  8023a8:	55                   	push   %ebp
  8023a9:	89 e5                	mov    %esp,%ebp
  8023ab:	83 ec 08             	sub    $0x8,%esp
  lwip_init();
  8023ae:	e8 71 03 00 00       	call   802724 <lwip_init>
  tcpip_init_done = initfunc;
  8023b3:	8b 45 08             	mov    0x8(%ebp),%eax
  8023b6:	a3 e8 52 81 00       	mov    %eax,0x8152e8
  tcpip_init_done_arg = arg;
  8023bb:	8b 45 0c             	mov    0xc(%ebp),%eax
  8023be:	a3 e4 52 81 00       	mov    %eax,0x8152e4
  mbox = sys_mbox_new(TCPIP_MBOX_SIZE);
  8023c3:	83 ec 0c             	sub    $0xc,%esp
  8023c6:	6a 00                	push   $0x0
  8023c8:	e8 43 7c 00 00       	call   80a010 <sys_mbox_new>
  8023cd:	a3 00 40 81 00       	mov    %eax,0x814000
  sys_thread_new(TCPIP_THREAD_NAME, tcpip_thread, NULL, TCPIP_THREAD_STACKSIZE, TCPIP_THREAD_PRIO);
  8023d2:	c7 04 24 01 00 00 00 	movl   $0x1,(%esp)
  8023d9:	6a 00                	push   $0x0
  8023db:	6a 00                	push   $0x0
  8023dd:	68 c5 1f 80 00       	push   $0x801fc5
  8023e2:	68 9c 12 81 00       	push   $0x81129c
  8023e7:	e8 b0 80 00 00       	call   80a49c <sys_thread_new>
}
  8023ec:	83 c4 20             	add    $0x20,%esp
  8023ef:	c9                   	leave  
  8023f0:	c3                   	ret    

008023f1 <pbuf_free_callback>:
 * @param p The pbuf (chain) to be dereferenced.
 * @return ERR_OK if callback could be enqueued, an err_t if not
 */
err_t
pbuf_free_callback(struct pbuf *p)
{
  8023f1:	55                   	push   %ebp
  8023f2:	89 e5                	mov    %esp,%ebp
  8023f4:	83 ec 0c             	sub    $0xc,%esp
  return tcpip_callback_with_block(pbuf_free_int, p, 0);
  8023f7:	6a 00                	push   $0x0
  8023f9:	ff 75 08             	pushl  0x8(%ebp)
  8023fc:	68 a4 21 80 00       	push   $0x8021a4
  802401:	e8 63 fe ff ff       	call   802269 <tcpip_callback_with_block>
}
  802406:	c9                   	leave  
  802407:	c3                   	ret    

00802408 <mem_free_callback>:
 * @param m the heap memory to free
 * @return ERR_OK if callback could be enqueued, an err_t if not
 */
err_t
mem_free_callback(void *m)
{
  802408:	55                   	push   %ebp
  802409:	89 e5                	mov    %esp,%ebp
  80240b:	83 ec 0c             	sub    $0xc,%esp
  return tcpip_callback_with_block(mem_free, m, 0);
  80240e:	6a 00                	push   $0x0
  802410:	ff 75 08             	pushl  0x8(%ebp)
  802413:	68 2f 3f 80 00       	push   $0x803f2f
  802418:	e8 4c fe ff ff       	call   802269 <tcpip_callback_with_block>
}
  80241d:	c9                   	leave  
  80241e:	c3                   	ret    

0080241f <netbuf_new>:
 * @return a pointer to a new netbuf
 *         NULL on lack of memory
 */
struct
netbuf *netbuf_new(void)
{
  80241f:	55                   	push   %ebp
  802420:	89 e5                	mov    %esp,%ebp
  802422:	83 ec 14             	sub    $0x14,%esp
  struct netbuf *buf;

  buf = memp_malloc(MEMP_NETBUF);
  802425:	6a 06                	push   $0x6
  802427:	e8 5c 20 00 00       	call   804488 <memp_malloc>
  if (buf != NULL) {
  80242c:	83 c4 10             	add    $0x10,%esp
  80242f:	85 c0                	test   %eax,%eax
  802431:	74 14                	je     802447 <netbuf_new+0x28>
    buf->p = NULL;
  802433:	c7 00 00 00 00 00    	movl   $0x0,(%eax)
    buf->ptr = NULL;
  802439:	c7 40 04 00 00 00 00 	movl   $0x0,0x4(%eax)
    buf->addr = NULL;
  802440:	c7 40 08 00 00 00 00 	movl   $0x0,0x8(%eax)
    return buf;
  } else {
    return NULL;
  }
}
  802447:	c9                   	leave  
  802448:	c3                   	ret    

00802449 <netbuf_delete>:
 *
 * @param buf pointer to a netbuf allocated by netbuf_new()
 */
void
netbuf_delete(struct netbuf *buf)
{
  802449:	55                   	push   %ebp
  80244a:	89 e5                	mov    %esp,%ebp
  80244c:	53                   	push   %ebx
  80244d:	83 ec 04             	sub    $0x4,%esp
  802450:	8b 5d 08             	mov    0x8(%ebp),%ebx
  if (buf != NULL) {
  802453:	85 db                	test   %ebx,%ebx
  802455:	74 2d                	je     802484 <netbuf_delete+0x3b>
    if (buf->p != NULL) {
  802457:	8b 03                	mov    (%ebx),%eax
  802459:	85 c0                	test   %eax,%eax
  80245b:	74 19                	je     802476 <netbuf_delete+0x2d>
      pbuf_free(buf->p);
  80245d:	83 ec 0c             	sub    $0xc,%esp
  802460:	50                   	push   %eax
  802461:	e8 e7 23 00 00       	call   80484d <pbuf_free>
      buf->p = buf->ptr = NULL;
  802466:	c7 43 04 00 00 00 00 	movl   $0x0,0x4(%ebx)
  80246d:	c7 03 00 00 00 00    	movl   $0x0,(%ebx)
  802473:	83 c4 10             	add    $0x10,%esp
    }
    memp_free(MEMP_NETBUF, buf);
  802476:	83 ec 08             	sub    $0x8,%esp
  802479:	53                   	push   %ebx
  80247a:	6a 06                	push   $0x6
  80247c:	e8 5d 20 00 00       	call   8044de <memp_free>
  802481:	83 c4 10             	add    $0x10,%esp
  }
}
  802484:	8b 5d fc             	mov    -0x4(%ebp),%ebx
  802487:	c9                   	leave  
  802488:	c3                   	ret    

00802489 <netbuf_alloc>:
 * @return pointer to the allocated memory
 *         NULL if no memory could be allocated
 */
void *
netbuf_alloc(struct netbuf *buf, u16_t size)
{
  802489:	55                   	push   %ebp
  80248a:	89 e5                	mov    %esp,%ebp
  80248c:	56                   	push   %esi
  80248d:	53                   	push   %ebx
  80248e:	8b 5d 08             	mov    0x8(%ebp),%ebx
  802491:	8b 75 0c             	mov    0xc(%ebp),%esi
  LWIP_ERROR("netbuf_alloc: invalid buf", (buf != NULL), return NULL;);
  802494:	85 db                	test   %ebx,%ebx
  802496:	74 3e                	je     8024d6 <netbuf_alloc+0x4d>

  /* Deallocate any previously allocated memory. */
  if (buf->p != NULL) {
  802498:	8b 03                	mov    (%ebx),%eax
  80249a:	85 c0                	test   %eax,%eax
  80249c:	74 0c                	je     8024aa <netbuf_alloc+0x21>
    pbuf_free(buf->p);
  80249e:	83 ec 0c             	sub    $0xc,%esp
  8024a1:	50                   	push   %eax
  8024a2:	e8 a6 23 00 00       	call   80484d <pbuf_free>
  8024a7:	83 c4 10             	add    $0x10,%esp
  }
  buf->p = pbuf_alloc(PBUF_TRANSPORT, size, PBUF_RAM);
  8024aa:	83 ec 04             	sub    $0x4,%esp
  8024ad:	6a 00                	push   $0x0
  8024af:	0f b7 c6             	movzwl %si,%eax
  8024b2:	50                   	push   %eax
  8024b3:	6a 00                	push   $0x0
  8024b5:	e8 59 24 00 00       	call   804913 <pbuf_alloc>
  8024ba:	89 03                	mov    %eax,(%ebx)
  if (buf->p == NULL) {
  8024bc:	83 c4 10             	add    $0x10,%esp
  8024bf:	85 c0                	test   %eax,%eax
  8024c1:	74 3b                	je     8024fe <netbuf_alloc+0x75>
     return NULL;
  }
  LWIP_ASSERT("check that first pbuf can hold size",
  8024c3:	66 39 70 0a          	cmp    %si,0xa(%eax)
  8024c7:	72 21                	jb     8024ea <netbuf_alloc+0x61>
             (buf->p->len >= size));
  buf->ptr = buf->p;
  8024c9:	89 43 04             	mov    %eax,0x4(%ebx)
  return buf->p->payload;
  8024cc:	8b 40 04             	mov    0x4(%eax),%eax
}
  8024cf:	8d 65 f8             	lea    -0x8(%ebp),%esp
  8024d2:	5b                   	pop    %ebx
  8024d3:	5e                   	pop    %esi
  8024d4:	5d                   	pop    %ebp
  8024d5:	c3                   	ret    
  LWIP_ERROR("netbuf_alloc: invalid buf", (buf != NULL), return NULL;);
  8024d6:	83 ec 04             	sub    $0x4,%esp
  8024d9:	68 a9 12 81 00       	push   $0x8112a9
  8024de:	6a 63                	push   $0x63
  8024e0:	68 c3 12 81 00       	push   $0x8112c3
  8024e5:	e8 69 c1 00 00       	call   80e653 <_panic>
  LWIP_ASSERT("check that first pbuf can hold size",
  8024ea:	83 ec 04             	sub    $0x4,%esp
  8024ed:	68 90 13 81 00       	push   $0x811390
  8024f2:	6a 6e                	push   $0x6e
  8024f4:	68 c3 12 81 00       	push   $0x8112c3
  8024f9:	e8 55 c1 00 00       	call   80e653 <_panic>
     return NULL;
  8024fe:	b8 00 00 00 00       	mov    $0x0,%eax
  802503:	eb ca                	jmp    8024cf <netbuf_alloc+0x46>

00802505 <netbuf_free>:
 *
 * @param buf pointer to the netbuf which contains the packet buffer to free
 */
void
netbuf_free(struct netbuf *buf)
{
  802505:	55                   	push   %ebp
  802506:	89 e5                	mov    %esp,%ebp
  802508:	53                   	push   %ebx
  802509:	83 ec 04             	sub    $0x4,%esp
  80250c:	8b 5d 08             	mov    0x8(%ebp),%ebx
  LWIP_ERROR("netbuf_free: invalid buf", (buf != NULL), return;);
  80250f:	85 db                	test   %ebx,%ebx
  802511:	74 24                	je     802537 <netbuf_free+0x32>
  if (buf->p != NULL) {
  802513:	8b 03                	mov    (%ebx),%eax
  802515:	85 c0                	test   %eax,%eax
  802517:	74 0c                	je     802525 <netbuf_free+0x20>
    pbuf_free(buf->p);
  802519:	83 ec 0c             	sub    $0xc,%esp
  80251c:	50                   	push   %eax
  80251d:	e8 2b 23 00 00       	call   80484d <pbuf_free>
  802522:	83 c4 10             	add    $0x10,%esp
  }
  buf->p = buf->ptr = NULL;
  802525:	c7 43 04 00 00 00 00 	movl   $0x0,0x4(%ebx)
  80252c:	c7 03 00 00 00 00    	movl   $0x0,(%ebx)
}
  802532:	8b 5d fc             	mov    -0x4(%ebp),%ebx
  802535:	c9                   	leave  
  802536:	c3                   	ret    
  LWIP_ERROR("netbuf_free: invalid buf", (buf != NULL), return;);
  802537:	83 ec 04             	sub    $0x4,%esp
  80253a:	68 d9 12 81 00       	push   $0x8112d9
  80253f:	6a 7b                	push   $0x7b
  802541:	68 c3 12 81 00       	push   $0x8112c3
  802546:	e8 08 c1 00 00       	call   80e653 <_panic>

0080254b <netbuf_ref>:
 * @return ERR_OK if data is referenced
 *         ERR_MEM if data couldn't be referenced due to lack of memory
 */
err_t
netbuf_ref(struct netbuf *buf, const void *dataptr, u16_t size)
{
  80254b:	55                   	push   %ebp
  80254c:	89 e5                	mov    %esp,%ebp
  80254e:	56                   	push   %esi
  80254f:	53                   	push   %ebx
  802550:	8b 5d 08             	mov    0x8(%ebp),%ebx
  802553:	8b 75 10             	mov    0x10(%ebp),%esi
  LWIP_ERROR("netbuf_ref: invalid buf", (buf != NULL), return ERR_ARG;);
  802556:	85 db                	test   %ebx,%ebx
  802558:	74 4c                	je     8025a6 <netbuf_ref+0x5b>
  if (buf->p != NULL) {
  80255a:	8b 03                	mov    (%ebx),%eax
  80255c:	85 c0                	test   %eax,%eax
  80255e:	74 0c                	je     80256c <netbuf_ref+0x21>
    pbuf_free(buf->p);
  802560:	83 ec 0c             	sub    $0xc,%esp
  802563:	50                   	push   %eax
  802564:	e8 e4 22 00 00       	call   80484d <pbuf_free>
  802569:	83 c4 10             	add    $0x10,%esp
  }
  buf->p = pbuf_alloc(PBUF_TRANSPORT, 0, PBUF_REF);
  80256c:	83 ec 04             	sub    $0x4,%esp
  80256f:	6a 02                	push   $0x2
  802571:	6a 00                	push   $0x0
  802573:	6a 00                	push   $0x0
  802575:	e8 99 23 00 00       	call   804913 <pbuf_alloc>
  80257a:	89 03                	mov    %eax,(%ebx)
  if (buf->p == NULL) {
  80257c:	83 c4 10             	add    $0x10,%esp
  80257f:	85 c0                	test   %eax,%eax
  802581:	74 3a                	je     8025bd <netbuf_ref+0x72>
    buf->ptr = NULL;
    return ERR_MEM;
  }
  buf->p->payload = (void*)dataptr;
  802583:	8b 55 0c             	mov    0xc(%ebp),%edx
  802586:	89 50 04             	mov    %edx,0x4(%eax)
  buf->p->len = buf->p->tot_len = size;
  802589:	8b 03                	mov    (%ebx),%eax
  80258b:	66 89 70 08          	mov    %si,0x8(%eax)
  80258f:	8b 03                	mov    (%ebx),%eax
  802591:	66 89 70 0a          	mov    %si,0xa(%eax)
  buf->ptr = buf->p;
  802595:	8b 03                	mov    (%ebx),%eax
  802597:	89 43 04             	mov    %eax,0x4(%ebx)
  return ERR_OK;
  80259a:	b8 00 00 00 00       	mov    $0x0,%eax
}
  80259f:	8d 65 f8             	lea    -0x8(%ebp),%esp
  8025a2:	5b                   	pop    %ebx
  8025a3:	5e                   	pop    %esi
  8025a4:	5d                   	pop    %ebp
  8025a5:	c3                   	ret    
  LWIP_ERROR("netbuf_ref: invalid buf", (buf != NULL), return ERR_ARG;);
  8025a6:	83 ec 04             	sub    $0x4,%esp
  8025a9:	68 f2 12 81 00       	push   $0x8112f2
  8025ae:	68 8e 00 00 00       	push   $0x8e
  8025b3:	68 c3 12 81 00       	push   $0x8112c3
  8025b8:	e8 96 c0 00 00       	call   80e653 <_panic>
    buf->ptr = NULL;
  8025bd:	c7 43 04 00 00 00 00 	movl   $0x0,0x4(%ebx)
    return ERR_MEM;
  8025c4:	b8 ff ff ff ff       	mov    $0xffffffff,%eax
  8025c9:	eb d4                	jmp    80259f <netbuf_ref+0x54>

008025cb <netbuf_chain>:
 * @param head the first netbuf
 * @param tail netbuf to chain after head
 */
void
netbuf_chain(struct netbuf *head, struct netbuf *tail)
{
  8025cb:	55                   	push   %ebp
  8025cc:	89 e5                	mov    %esp,%ebp
  8025ce:	56                   	push   %esi
  8025cf:	53                   	push   %ebx
  8025d0:	8b 5d 08             	mov    0x8(%ebp),%ebx
  8025d3:	8b 75 0c             	mov    0xc(%ebp),%esi
  LWIP_ERROR("netbuf_ref: invalid head", (head != NULL), return;);
  8025d6:	85 db                	test   %ebx,%ebx
  8025d8:	74 2a                	je     802604 <netbuf_chain+0x39>
  LWIP_ERROR("netbuf_chain: invalid tail", (tail != NULL), return;);
  8025da:	85 f6                	test   %esi,%esi
  8025dc:	74 3d                	je     80261b <netbuf_chain+0x50>
  pbuf_chain(head->p, tail->p);
  8025de:	83 ec 08             	sub    $0x8,%esp
  8025e1:	ff 36                	pushl  (%esi)
  8025e3:	ff 33                	pushl  (%ebx)
  8025e5:	e8 3b 27 00 00       	call   804d25 <pbuf_chain>
  head->ptr = head->p;
  8025ea:	8b 03                	mov    (%ebx),%eax
  8025ec:	89 43 04             	mov    %eax,0x4(%ebx)
  memp_free(MEMP_NETBUF, tail);
  8025ef:	83 c4 08             	add    $0x8,%esp
  8025f2:	56                   	push   %esi
  8025f3:	6a 06                	push   $0x6
  8025f5:	e8 e4 1e 00 00       	call   8044de <memp_free>
}
  8025fa:	83 c4 10             	add    $0x10,%esp
  8025fd:	8d 65 f8             	lea    -0x8(%ebp),%esp
  802600:	5b                   	pop    %ebx
  802601:	5e                   	pop    %esi
  802602:	5d                   	pop    %ebp
  802603:	c3                   	ret    
  LWIP_ERROR("netbuf_ref: invalid head", (head != NULL), return;);
  802604:	83 ec 04             	sub    $0x4,%esp
  802607:	68 0a 13 81 00       	push   $0x81130a
  80260c:	68 a6 00 00 00       	push   $0xa6
  802611:	68 c3 12 81 00       	push   $0x8112c3
  802616:	e8 38 c0 00 00       	call   80e653 <_panic>
  LWIP_ERROR("netbuf_chain: invalid tail", (tail != NULL), return;);
  80261b:	83 ec 04             	sub    $0x4,%esp
  80261e:	68 23 13 81 00       	push   $0x811323
  802623:	68 a7 00 00 00       	push   $0xa7
  802628:	68 c3 12 81 00       	push   $0x8112c3
  80262d:	e8 21 c0 00 00       	call   80e653 <_panic>

00802632 <netbuf_data>:
 * @return ERR_OK if the information was retreived,
 *         ERR_BUF on error.
 */
err_t
netbuf_data(struct netbuf *buf, void **dataptr, u16_t *len)
{
  802632:	55                   	push   %ebp
  802633:	89 e5                	mov    %esp,%ebp
  802635:	53                   	push   %ebx
  802636:	83 ec 04             	sub    $0x4,%esp
  802639:	8b 45 08             	mov    0x8(%ebp),%eax
  80263c:	8b 4d 0c             	mov    0xc(%ebp),%ecx
  80263f:	8b 55 10             	mov    0x10(%ebp),%edx
  LWIP_ERROR("netbuf_data: invalid buf", (buf != NULL), return ERR_ARG;);
  802642:	85 c0                	test   %eax,%eax
  802644:	74 28                	je     80266e <netbuf_data+0x3c>
  LWIP_ERROR("netbuf_data: invalid dataptr", (dataptr != NULL), return ERR_ARG;);
  802646:	85 c9                	test   %ecx,%ecx
  802648:	74 3b                	je     802685 <netbuf_data+0x53>
  LWIP_ERROR("netbuf_data: invalid len", (len != NULL), return ERR_ARG;);
  80264a:	85 d2                	test   %edx,%edx
  80264c:	74 4e                	je     80269c <netbuf_data+0x6a>

  if (buf->ptr == NULL) {
  80264e:	8b 58 04             	mov    0x4(%eax),%ebx
  802651:	85 db                	test   %ebx,%ebx
  802653:	74 5e                	je     8026b3 <netbuf_data+0x81>
    return ERR_BUF;
  }
  *dataptr = buf->ptr->payload;
  802655:	8b 5b 04             	mov    0x4(%ebx),%ebx
  802658:	89 19                	mov    %ebx,(%ecx)
  *len = buf->ptr->len;
  80265a:	8b 40 04             	mov    0x4(%eax),%eax
  80265d:	0f b7 40 0a          	movzwl 0xa(%eax),%eax
  802661:	66 89 02             	mov    %ax,(%edx)
  return ERR_OK;
  802664:	b8 00 00 00 00       	mov    $0x0,%eax
}
  802669:	8b 5d fc             	mov    -0x4(%ebp),%ebx
  80266c:	c9                   	leave  
  80266d:	c3                   	ret    
  LWIP_ERROR("netbuf_data: invalid buf", (buf != NULL), return ERR_ARG;);
  80266e:	83 ec 04             	sub    $0x4,%esp
  802671:	68 3e 13 81 00       	push   $0x81133e
  802676:	68 b9 00 00 00       	push   $0xb9
  80267b:	68 c3 12 81 00       	push   $0x8112c3
  802680:	e8 ce bf 00 00       	call   80e653 <_panic>
  LWIP_ERROR("netbuf_data: invalid dataptr", (dataptr != NULL), return ERR_ARG;);
  802685:	83 ec 04             	sub    $0x4,%esp
  802688:	68 57 13 81 00       	push   $0x811357
  80268d:	68 ba 00 00 00       	push   $0xba
  802692:	68 c3 12 81 00       	push   $0x8112c3
  802697:	e8 b7 bf 00 00       	call   80e653 <_panic>
  LWIP_ERROR("netbuf_data: invalid len", (len != NULL), return ERR_ARG;);
  80269c:	83 ec 04             	sub    $0x4,%esp
  80269f:	68 74 13 81 00       	push   $0x811374
  8026a4:	68 bb 00 00 00       	push   $0xbb
  8026a9:	68 c3 12 81 00       	push   $0x8112c3
  8026ae:	e8 a0 bf 00 00       	call   80e653 <_panic>
    return ERR_BUF;
  8026b3:	b8 fe ff ff ff       	mov    $0xfffffffe,%eax
  8026b8:	eb af                	jmp    802669 <netbuf_data+0x37>

008026ba <netbuf_next>:
 *         1  if moved to the next part but now there is no next part
 *         0  if moved to the next part and there are still more parts
 */
s8_t
netbuf_next(struct netbuf *buf)
{
  8026ba:	55                   	push   %ebp
  8026bb:	89 e5                	mov    %esp,%ebp
  8026bd:	83 ec 08             	sub    $0x8,%esp
  8026c0:	8b 45 08             	mov    0x8(%ebp),%eax
  LWIP_ERROR("netbuf_free: invalid buf", (buf != NULL), return -1;);
  8026c3:	85 c0                	test   %eax,%eax
  8026c5:	74 14                	je     8026db <netbuf_next+0x21>
  if (buf->ptr->next == NULL) {
  8026c7:	8b 50 04             	mov    0x4(%eax),%edx
  8026ca:	8b 12                	mov    (%edx),%edx
  8026cc:	85 d2                	test   %edx,%edx
  8026ce:	74 22                	je     8026f2 <netbuf_next+0x38>
    return -1;
  }
  buf->ptr = buf->ptr->next;
  8026d0:	89 50 04             	mov    %edx,0x4(%eax)
  if (buf->ptr->next == NULL) {
  8026d3:	83 3a 00             	cmpl   $0x0,(%edx)
  8026d6:	0f 94 c0             	sete   %al
    return 1;
  }
  return 0;
}
  8026d9:	c9                   	leave  
  8026da:	c3                   	ret    
  LWIP_ERROR("netbuf_free: invalid buf", (buf != NULL), return -1;);
  8026db:	83 ec 04             	sub    $0x4,%esp
  8026de:	68 d9 12 81 00       	push   $0x8112d9
  8026e3:	68 d2 00 00 00       	push   $0xd2
  8026e8:	68 c3 12 81 00       	push   $0x8112c3
  8026ed:	e8 61 bf 00 00       	call   80e653 <_panic>
    return -1;
  8026f2:	b8 ff ff ff ff       	mov    $0xffffffff,%eax
  8026f7:	eb e0                	jmp    8026d9 <netbuf_next+0x1f>

008026f9 <netbuf_first>:
 *
 * @param buf the netbuf to modify
 */
void
netbuf_first(struct netbuf *buf)
{
  8026f9:	55                   	push   %ebp
  8026fa:	89 e5                	mov    %esp,%ebp
  8026fc:	83 ec 08             	sub    $0x8,%esp
  8026ff:	8b 45 08             	mov    0x8(%ebp),%eax
  LWIP_ERROR("netbuf_free: invalid buf", (buf != NULL), return;);
  802702:	85 c0                	test   %eax,%eax
  802704:	74 07                	je     80270d <netbuf_first+0x14>
  buf->ptr = buf->p;
  802706:	8b 10                	mov    (%eax),%edx
  802708:	89 50 04             	mov    %edx,0x4(%eax)
}
  80270b:	c9                   	leave  
  80270c:	c3                   	ret    
  LWIP_ERROR("netbuf_free: invalid buf", (buf != NULL), return;);
  80270d:	83 ec 04             	sub    $0x4,%esp
  802710:	68 d9 12 81 00       	push   $0x8112d9
  802715:	68 e7 00 00 00       	push   $0xe7
  80271a:	68 c3 12 81 00       	push   $0x8112c3
  80271f:	e8 2f bf 00 00       	call   80e653 <_panic>

00802724 <lwip_init>:
/**
 * Perform Sanity check of user-configurable values, and initialize all modules.
 */
void
lwip_init(void)
{
  802724:	55                   	push   %ebp
  802725:	89 e5                	mov    %esp,%ebp
  802727:	83 ec 08             	sub    $0x8,%esp
  /* Sanity check user-configurable values */
  lwip_sanity_check();

  /* Modules initialization */
  stats_init();
  sys_init();
  80272a:	e8 9b 76 00 00       	call   809dca <sys_init>
  mem_init();
  80272f:	e8 95 17 00 00       	call   803ec9 <mem_init>
  memp_init();
  802734:	e8 e6 1c 00 00       	call   80441f <memp_init>
  pbuf_init();
  netif_init();
#if LWIP_SOCKET
  lwip_socket_init();
  802739:	e8 b7 e6 ff ff       	call   800df5 <lwip_socket_init>
  igmp_init();
#endif /* LWIP_IGMP */
#if LWIP_DNS
  dns_init();
#endif /* LWIP_DNS */
}
  80273e:	c9                   	leave  
  80273f:	c3                   	ret    

00802740 <dhcp_set_state>:
 *
 * TODO: we might also want to reset the timeout here?
 */
static void
dhcp_set_state(struct dhcp *dhcp, u8_t new_state)
{
  802740:	55                   	push   %ebp
  802741:	89 e5                	mov    %esp,%ebp
  if (new_state != dhcp->state) {
  802743:	38 10                	cmp    %dl,(%eax)
  802745:	74 06                	je     80274d <dhcp_set_state+0xd>
    dhcp->state = new_state;
  802747:	88 10                	mov    %dl,(%eax)
    dhcp->tries = 0;
  802749:	c6 40 01 00          	movb   $0x0,0x1(%eax)
  }
}
  80274d:	5d                   	pop    %ebp
  80274e:	c3                   	ret    

0080274f <dhcp_get_option_ptr>:
 *
 * @return a byte offset into the UDP message where the option was found, or
 * zero if the given option was not found.
 */
static u8_t *dhcp_get_option_ptr(struct dhcp *dhcp, u8_t option_type)
{
  80274f:	55                   	push   %ebp
  802750:	89 e5                	mov    %esp,%ebp
  802752:	57                   	push   %edi
  802753:	56                   	push   %esi
  802754:	53                   	push   %ebx
  802755:	83 ec 08             	sub    $0x8,%esp
  802758:	89 45 ec             	mov    %eax,-0x14(%ebp)
  u8_t overload = DHCP_OVERLOAD_NONE;

  /* options available? */
  if ((dhcp->options_in != NULL) && (dhcp->options_in_len > 0)) {
  80275b:	8b 70 14             	mov    0x14(%eax),%esi
  80275e:	85 f6                	test   %esi,%esi
  802760:	0f 84 da 00 00 00    	je     802840 <dhcp_get_option_ptr+0xf1>
  802766:	0f b7 78 18          	movzwl 0x18(%eax),%edi
    /* start with options field */
    u8_t *options = (u8_t *)dhcp->options_in;
    u16_t offset = 0;
  80276a:	b9 00 00 00 00       	mov    $0x0,%ecx
  u8_t overload = DHCP_OVERLOAD_NONE;
  80276f:	c6 45 f0 00          	movb   $0x0,-0x10(%ebp)
          offset += 1 + options[offset];
        }
      }
    }
  }
  return NULL;
  802773:	b8 00 00 00 00       	mov    $0x0,%eax
  if ((dhcp->options_in != NULL) && (dhcp->options_in_len > 0)) {
  802778:	66 85 ff             	test   %di,%di
  80277b:	75 25                	jne    8027a2 <dhcp_get_option_ptr+0x53>
  80277d:	e9 d1 00 00 00       	jmp    802853 <dhcp_get_option_ptr+0x104>
        offset += 2;
  802782:	8d 41 02             	lea    0x2(%ecx),%eax
        overload = options[offset++];
  802785:	83 c1 03             	add    $0x3,%ecx
  802788:	0f b7 c0             	movzwl %ax,%eax
  80278b:	0f b6 04 06          	movzbl (%esi,%eax,1),%eax
  80278f:	88 45 f0             	mov    %al,-0x10(%ebp)
  802792:	eb 0e                	jmp    8027a2 <dhcp_get_option_ptr+0x53>
        offset++;
  802794:	8d 41 01             	lea    0x1(%ecx),%eax
        offset += 1 + options[offset];
  802797:	0f b7 c0             	movzwl %ax,%eax
  80279a:	0f b6 04 06          	movzbl (%esi,%eax,1),%eax
  80279e:	8d 4c 08 02          	lea    0x2(%eax,%ecx,1),%ecx
    while ((offset < dhcp->options_in_len) && (options[offset] != DHCP_OPTION_END)) {
  8027a2:	66 39 cf             	cmp    %cx,%di
  8027a5:	76 1b                	jbe    8027c2 <dhcp_get_option_ptr+0x73>
  8027a7:	0f b7 c1             	movzwl %cx,%eax
  8027aa:	01 f0                	add    %esi,%eax
  8027ac:	0f b6 18             	movzbl (%eax),%ebx
  8027af:	80 fb ff             	cmp    $0xff,%bl
  8027b2:	74 0e                	je     8027c2 <dhcp_get_option_ptr+0x73>
      if (options[offset] == DHCP_OPTION_OVERLOAD) {
  8027b4:	80 fb 34             	cmp    $0x34,%bl
  8027b7:	74 c9                	je     802782 <dhcp_get_option_ptr+0x33>
      else if (options[offset] == option_type) {
  8027b9:	38 d3                	cmp    %dl,%bl
  8027bb:	75 d7                	jne    802794 <dhcp_get_option_ptr+0x45>
  8027bd:	e9 91 00 00 00       	jmp    802853 <dhcp_get_option_ptr+0x104>
    if (overload != DHCP_OVERLOAD_NONE) {
  8027c2:	0f b6 45 f0          	movzbl -0x10(%ebp),%eax
  8027c6:	84 c0                	test   %al,%al
  8027c8:	74 7d                	je     802847 <dhcp_get_option_ptr+0xf8>
      if (overload == DHCP_OVERLOAD_FILE) {
  8027ca:	3c 01                	cmp    $0x1,%al
  8027cc:	74 1d                	je     8027eb <dhcp_get_option_ptr+0x9c>
      } else if (overload == DHCP_OVERLOAD_SNAME) {
  8027ce:	80 7d f0 02          	cmpb   $0x2,-0x10(%ebp)
  8027d2:	74 27                	je     8027fb <dhcp_get_option_ptr+0xac>
        options = (u8_t *)&dhcp->msg_in->sname;
  8027d4:	8b 45 ec             	mov    -0x14(%ebp),%eax
  8027d7:	8b 58 10             	mov    0x10(%eax),%ebx
  8027da:	83 c3 2c             	add    $0x2c,%ebx
        field_len = DHCP_FILE_LEN + DHCP_SNAME_LEN;
  8027dd:	be c0 00 00 00       	mov    $0xc0,%esi
      offset = 0;
  8027e2:	b9 00 00 00 00       	mov    $0x0,%ecx
  8027e7:	89 d7                	mov    %edx,%edi
      while ((offset < field_len) && (options[offset] != DHCP_OPTION_END)) {
  8027e9:	eb 2e                	jmp    802819 <dhcp_get_option_ptr+0xca>
        options = (u8_t *)&dhcp->msg_in->file;
  8027eb:	8b 45 ec             	mov    -0x14(%ebp),%eax
  8027ee:	8b 58 10             	mov    0x10(%eax),%ebx
  8027f1:	83 c3 6c             	add    $0x6c,%ebx
        field_len = DHCP_FILE_LEN;
  8027f4:	be 80 00 00 00       	mov    $0x80,%esi
  8027f9:	eb e7                	jmp    8027e2 <dhcp_get_option_ptr+0x93>
        options = (u8_t *)&dhcp->msg_in->sname;
  8027fb:	8b 45 ec             	mov    -0x14(%ebp),%eax
  8027fe:	8b 58 10             	mov    0x10(%eax),%ebx
  802801:	83 c3 2c             	add    $0x2c,%ebx
        field_len = DHCP_SNAME_LEN;
  802804:	be 40 00 00 00       	mov    $0x40,%esi
  802809:	eb d7                	jmp    8027e2 <dhcp_get_option_ptr+0x93>
          offset++;
  80280b:	8d 41 01             	lea    0x1(%ecx),%eax
          offset += 1 + options[offset];
  80280e:	0f b7 c0             	movzwl %ax,%eax
  802811:	0f b6 04 03          	movzbl (%ebx,%eax,1),%eax
  802815:	8d 4c 01 02          	lea    0x2(%ecx,%eax,1),%ecx
      while ((offset < field_len) && (options[offset] != DHCP_OPTION_END)) {
  802819:	66 39 ce             	cmp    %cx,%si
  80281c:	76 30                	jbe    80284e <dhcp_get_option_ptr+0xff>
  80281e:	0f b7 c1             	movzwl %cx,%eax
  802821:	01 d8                	add    %ebx,%eax
  802823:	89 45 f0             	mov    %eax,-0x10(%ebp)
  802826:	0f b6 10             	movzbl (%eax),%edx
  802829:	80 fa ff             	cmp    $0xff,%dl
  80282c:	74 0b                	je     802839 <dhcp_get_option_ptr+0xea>
        if (options[offset] == option_type) {
  80282e:	89 f8                	mov    %edi,%eax
  802830:	38 c2                	cmp    %al,%dl
  802832:	75 d7                	jne    80280b <dhcp_get_option_ptr+0xbc>
  802834:	8b 45 f0             	mov    -0x10(%ebp),%eax
  802837:	eb 1a                	jmp    802853 <dhcp_get_option_ptr+0x104>
  return NULL;
  802839:	b8 00 00 00 00       	mov    $0x0,%eax
  80283e:	eb 13                	jmp    802853 <dhcp_get_option_ptr+0x104>
  802840:	b8 00 00 00 00       	mov    $0x0,%eax
  802845:	eb 0c                	jmp    802853 <dhcp_get_option_ptr+0x104>
  802847:	b8 00 00 00 00       	mov    $0x0,%eax
  80284c:	eb 05                	jmp    802853 <dhcp_get_option_ptr+0x104>
  80284e:	b8 00 00 00 00       	mov    $0x0,%eax
}
  802853:	83 c4 08             	add    $0x8,%esp
  802856:	5b                   	pop    %ebx
  802857:	5e                   	pop    %esi
  802858:	5f                   	pop    %edi
  802859:	5d                   	pop    %ebp
  80285a:	c3                   	ret    

0080285b <dhcp_get_option_long>:
 * @param ptr pointer obtained by dhcp_get_option_ptr().
 *
 * @return byte value at the given address.
 */
static u32_t dhcp_get_option_long(u8_t *ptr)
{
  80285b:	55                   	push   %ebp
  80285c:	89 e5                	mov    %esp,%ebp
  u32_t value;
  value = (u32_t)(*ptr++) << 24;
  80285e:	0f b6 10             	movzbl (%eax),%edx
  802861:	89 d1                	mov    %edx,%ecx
  802863:	c1 e1 18             	shl    $0x18,%ecx
  value |= (u32_t)(*ptr++) << 16;
  802866:	0f b6 50 01          	movzbl 0x1(%eax),%edx
  80286a:	c1 e2 10             	shl    $0x10,%edx
  80286d:	09 ca                	or     %ecx,%edx
  value |= (u32_t)(*ptr++) << 8;
  value |= (u32_t)(*ptr++);
  80286f:	0f b6 48 03          	movzbl 0x3(%eax),%ecx
  802873:	09 ca                	or     %ecx,%edx
  value |= (u32_t)(*ptr++) << 8;
  802875:	0f b6 40 02          	movzbl 0x2(%eax),%eax
  802879:	c1 e0 08             	shl    $0x8,%eax
  value |= (u32_t)(*ptr++);
  80287c:	09 d0                	or     %edx,%eax
  LWIP_DEBUGF(DHCP_DEBUG, ("option long value=%"U32_F"\n", value));
  return value;
}
  80287e:	5d                   	pop    %ebp
  80287f:	c3                   	ret    

00802880 <dhcp_option_byte>:
{
  802880:	55                   	push   %ebp
  802881:	89 e5                	mov    %esp,%ebp
  802883:	56                   	push   %esi
  802884:	53                   	push   %ebx
  LWIP_ASSERT("dhcp_option_byte: dhcp->options_out_len < DHCP_OPTIONS_LEN", dhcp->options_out_len < DHCP_OPTIONS_LEN);
  802885:	0f b7 48 24          	movzwl 0x24(%eax),%ecx
  802889:	66 83 f9 43          	cmp    $0x43,%cx
  80288d:	77 1b                	ja     8028aa <dhcp_option_byte+0x2a>
  dhcp->msg_out->options[dhcp->options_out_len++] = value;
  80288f:	8b 58 20             	mov    0x20(%eax),%ebx
  802892:	8d 71 01             	lea    0x1(%ecx),%esi
  802895:	66 89 70 24          	mov    %si,0x24(%eax)
  802899:	0f b7 c9             	movzwl %cx,%ecx
  80289c:	88 94 0b f0 00 00 00 	mov    %dl,0xf0(%ebx,%ecx,1)
}
  8028a3:	8d 65 f8             	lea    -0x8(%ebp),%esp
  8028a6:	5b                   	pop    %ebx
  8028a7:	5e                   	pop    %esi
  8028a8:	5d                   	pop    %ebp
  8028a9:	c3                   	ret    
  LWIP_ASSERT("dhcp_option_byte: dhcp->options_out_len < DHCP_OPTIONS_LEN", dhcp->options_out_len < DHCP_OPTIONS_LEN);
  8028aa:	83 ec 04             	sub    $0x4,%esp
  8028ad:	68 b4 13 81 00       	push   $0x8113b4
  8028b2:	68 65 04 00 00       	push   $0x465
  8028b7:	68 02 17 81 00       	push   $0x811702
  8028bc:	e8 92 bd 00 00       	call   80e653 <_panic>

008028c1 <dhcp_option>:
{
  8028c1:	55                   	push   %ebp
  8028c2:	89 e5                	mov    %esp,%ebp
  8028c4:	57                   	push   %edi
  8028c5:	56                   	push   %esi
  8028c6:	53                   	push   %ebx
  8028c7:	83 ec 0c             	sub    $0xc,%esp
  LWIP_ASSERT("dhcp_option: dhcp->options_out_len + 2 + option_len <= DHCP_OPTIONS_LEN", dhcp->options_out_len + 2U + option_len <= DHCP_OPTIONS_LEN);
  8028ca:	0f b7 58 24          	movzwl 0x24(%eax),%ebx
  8028ce:	0f b6 f9             	movzbl %cl,%edi
  8028d1:	0f b7 f3             	movzwl %bx,%esi
  8028d4:	8d 74 37 02          	lea    0x2(%edi,%esi,1),%esi
  8028d8:	83 fe 44             	cmp    $0x44,%esi
  8028db:	77 34                	ja     802911 <dhcp_option+0x50>
  dhcp->msg_out->options[dhcp->options_out_len++] = option_type;
  8028dd:	8b 70 20             	mov    0x20(%eax),%esi
  8028e0:	8d 7b 01             	lea    0x1(%ebx),%edi
  8028e3:	66 89 78 24          	mov    %di,0x24(%eax)
  8028e7:	0f b7 db             	movzwl %bx,%ebx
  8028ea:	88 94 1e f0 00 00 00 	mov    %dl,0xf0(%esi,%ebx,1)
  dhcp->msg_out->options[dhcp->options_out_len++] = option_len;
  8028f1:	8b 58 20             	mov    0x20(%eax),%ebx
  8028f4:	0f b7 50 24          	movzwl 0x24(%eax),%edx
  8028f8:	8d 72 01             	lea    0x1(%edx),%esi
  8028fb:	66 89 70 24          	mov    %si,0x24(%eax)
  8028ff:	0f b7 d2             	movzwl %dx,%edx
  802902:	88 8c 13 f0 00 00 00 	mov    %cl,0xf0(%ebx,%edx,1)
}
  802909:	8d 65 f4             	lea    -0xc(%ebp),%esp
  80290c:	5b                   	pop    %ebx
  80290d:	5e                   	pop    %esi
  80290e:	5f                   	pop    %edi
  80290f:	5d                   	pop    %ebp
  802910:	c3                   	ret    
  LWIP_ASSERT("dhcp_option: dhcp->options_out_len + 2 + option_len <= DHCP_OPTIONS_LEN", dhcp->options_out_len + 2U + option_len <= DHCP_OPTIONS_LEN);
  802911:	83 ec 04             	sub    $0x4,%esp
  802914:	68 f0 13 81 00       	push   $0x8113f0
  802919:	68 5a 04 00 00       	push   $0x45a
  80291e:	68 02 17 81 00       	push   $0x811702
  802923:	e8 2b bd 00 00       	call   80e653 <_panic>

00802928 <dhcp_option_short>:
{
  802928:	55                   	push   %ebp
  802929:	89 e5                	mov    %esp,%ebp
  80292b:	56                   	push   %esi
  80292c:	53                   	push   %ebx
  LWIP_ASSERT("dhcp_option_short: dhcp->options_out_len + 2 <= DHCP_OPTIONS_LEN", dhcp->options_out_len + 2U <= DHCP_OPTIONS_LEN);
  80292d:	0f b7 48 24          	movzwl 0x24(%eax),%ecx
  802931:	0f b7 d9             	movzwl %cx,%ebx
  802934:	83 c3 02             	add    $0x2,%ebx
  802937:	83 fb 44             	cmp    $0x44,%ebx
  80293a:	77 33                	ja     80296f <dhcp_option_short+0x47>
  dhcp->msg_out->options[dhcp->options_out_len++] = (u8_t)((value & 0xff00U) >> 8);
  80293c:	8b 58 20             	mov    0x20(%eax),%ebx
  80293f:	8d 71 01             	lea    0x1(%ecx),%esi
  802942:	66 89 70 24          	mov    %si,0x24(%eax)
  802946:	0f b7 c9             	movzwl %cx,%ecx
  802949:	88 b4 0b f0 00 00 00 	mov    %dh,0xf0(%ebx,%ecx,1)
  dhcp->msg_out->options[dhcp->options_out_len++] = (u8_t) (value & 0x00ffU);
  802950:	8b 58 20             	mov    0x20(%eax),%ebx
  802953:	0f b7 48 24          	movzwl 0x24(%eax),%ecx
  802957:	8d 71 01             	lea    0x1(%ecx),%esi
  80295a:	66 89 70 24          	mov    %si,0x24(%eax)
  80295e:	0f b7 c9             	movzwl %cx,%ecx
  802961:	88 94 0b f0 00 00 00 	mov    %dl,0xf0(%ebx,%ecx,1)
}
  802968:	8d 65 f8             	lea    -0x8(%ebp),%esp
  80296b:	5b                   	pop    %ebx
  80296c:	5e                   	pop    %esi
  80296d:	5d                   	pop    %ebp
  80296e:	c3                   	ret    
  LWIP_ASSERT("dhcp_option_short: dhcp->options_out_len + 2 <= DHCP_OPTIONS_LEN", dhcp->options_out_len + 2U <= DHCP_OPTIONS_LEN);
  80296f:	83 ec 04             	sub    $0x4,%esp
  802972:	68 38 14 81 00       	push   $0x811438
  802977:	68 6c 04 00 00       	push   $0x46c
  80297c:	68 02 17 81 00       	push   $0x811702
  802981:	e8 cd bc 00 00       	call   80e653 <_panic>

00802986 <dhcp_option_trailer>:
{
  802986:	55                   	push   %ebp
  802987:	89 e5                	mov    %esp,%ebp
  802989:	53                   	push   %ebx
  80298a:	83 ec 04             	sub    $0x4,%esp
  LWIP_ERROR("dhcp_option_trailer: dhcp != NULL", (dhcp != NULL), return;);
  80298d:	85 c0                	test   %eax,%eax
  80298f:	74 25                	je     8029b6 <dhcp_option_trailer+0x30>
  LWIP_ASSERT("dhcp_option_trailer: dhcp->msg_out != NULL\n", dhcp->msg_out != NULL);
  802991:	8b 48 20             	mov    0x20(%eax),%ecx
  802994:	85 c9                	test   %ecx,%ecx
  802996:	74 35                	je     8029cd <dhcp_option_trailer+0x47>
  LWIP_ASSERT("dhcp_option_trailer: dhcp->options_out_len < DHCP_OPTIONS_LEN\n", dhcp->options_out_len < DHCP_OPTIONS_LEN);
  802998:	0f b7 50 24          	movzwl 0x24(%eax),%edx
  80299c:	66 83 fa 43          	cmp    $0x43,%dx
  8029a0:	77 42                	ja     8029e4 <dhcp_option_trailer+0x5e>
  dhcp->msg_out->options[dhcp->options_out_len++] = DHCP_OPTION_END;
  8029a2:	8d 5a 01             	lea    0x1(%edx),%ebx
  8029a5:	66 89 58 24          	mov    %bx,0x24(%eax)
  8029a9:	0f b7 d2             	movzwl %dx,%edx
  8029ac:	c6 84 11 f0 00 00 00 	movb   $0xff,0xf0(%ecx,%edx,1)
  8029b3:	ff 
  while ((dhcp->options_out_len < DHCP_MIN_OPTIONS_LEN) || (dhcp->options_out_len & 3)) {
  8029b4:	eb 5a                	jmp    802a10 <dhcp_option_trailer+0x8a>
  LWIP_ERROR("dhcp_option_trailer: dhcp != NULL", (dhcp != NULL), return;);
  8029b6:	83 ec 04             	sub    $0x4,%esp
  8029b9:	68 7c 14 81 00       	push   $0x81147c
  8029be:	68 80 05 00 00       	push   $0x580
  8029c3:	68 02 17 81 00       	push   $0x811702
  8029c8:	e8 86 bc 00 00       	call   80e653 <_panic>
  LWIP_ASSERT("dhcp_option_trailer: dhcp->msg_out != NULL\n", dhcp->msg_out != NULL);
  8029cd:	83 ec 04             	sub    $0x4,%esp
  8029d0:	68 a0 14 81 00       	push   $0x8114a0
  8029d5:	68 81 05 00 00       	push   $0x581
  8029da:	68 02 17 81 00       	push   $0x811702
  8029df:	e8 6f bc 00 00       	call   80e653 <_panic>
  LWIP_ASSERT("dhcp_option_trailer: dhcp->options_out_len < DHCP_OPTIONS_LEN\n", dhcp->options_out_len < DHCP_OPTIONS_LEN);
  8029e4:	83 ec 04             	sub    $0x4,%esp
  8029e7:	68 cc 14 81 00       	push   $0x8114cc
  8029ec:	68 82 05 00 00       	push   $0x582
  8029f1:	68 02 17 81 00       	push   $0x811702
  8029f6:	e8 58 bc 00 00       	call   80e653 <_panic>
    dhcp->msg_out->options[dhcp->options_out_len++] = 0;
  8029fb:	8b 48 20             	mov    0x20(%eax),%ecx
  8029fe:	8d 5a 01             	lea    0x1(%edx),%ebx
  802a01:	66 89 58 24          	mov    %bx,0x24(%eax)
  802a05:	0f b7 d2             	movzwl %dx,%edx
  802a08:	c6 84 11 f0 00 00 00 	movb   $0x0,0xf0(%ecx,%edx,1)
  802a0f:	00 
  while ((dhcp->options_out_len < DHCP_MIN_OPTIONS_LEN) || (dhcp->options_out_len & 3)) {
  802a10:	0f b7 50 24          	movzwl 0x24(%eax),%edx
  802a14:	66 83 fa 43          	cmp    $0x43,%dx
  802a18:	76 e1                	jbe    8029fb <dhcp_option_trailer+0x75>
  802a1a:	f6 c2 03             	test   $0x3,%dl
  802a1d:	74 17                	je     802a36 <dhcp_option_trailer+0xb0>
    LWIP_ASSERT("dhcp_option_trailer: dhcp->options_out_len < DHCP_OPTIONS_LEN\n", dhcp->options_out_len < DHCP_OPTIONS_LEN);
  802a1f:	83 ec 04             	sub    $0x4,%esp
  802a22:	68 cc 14 81 00       	push   $0x8114cc
  802a27:	68 87 05 00 00       	push   $0x587
  802a2c:	68 02 17 81 00       	push   $0x811702
  802a31:	e8 1d bc 00 00       	call   80e653 <_panic>
}
  802a36:	8b 5d fc             	mov    -0x4(%ebp),%ebx
  802a39:	c9                   	leave  
  802a3a:	c3                   	ret    

00802a3b <dhcp_option_long>:
{
  802a3b:	55                   	push   %ebp
  802a3c:	89 e5                	mov    %esp,%ebp
  802a3e:	56                   	push   %esi
  802a3f:	53                   	push   %ebx
  LWIP_ASSERT("dhcp_option_long: dhcp->options_out_len + 4 <= DHCP_OPTIONS_LEN", dhcp->options_out_len + 4U <= DHCP_OPTIONS_LEN);
  802a40:	0f b7 48 24          	movzwl 0x24(%eax),%ecx
  802a44:	0f b7 d9             	movzwl %cx,%ebx
  802a47:	83 c3 04             	add    $0x4,%ebx
  802a4a:	83 fb 44             	cmp    $0x44,%ebx
  802a4d:	77 6d                	ja     802abc <dhcp_option_long+0x81>
  dhcp->msg_out->options[dhcp->options_out_len++] = (u8_t)((value & 0xff000000UL) >> 24);
  802a4f:	8d 71 01             	lea    0x1(%ecx),%esi
  802a52:	66 89 70 24          	mov    %si,0x24(%eax)
  802a56:	0f b7 c9             	movzwl %cx,%ecx
  802a59:	89 d3                	mov    %edx,%ebx
  802a5b:	c1 eb 18             	shr    $0x18,%ebx
  802a5e:	8b 70 20             	mov    0x20(%eax),%esi
  802a61:	88 9c 0e f0 00 00 00 	mov    %bl,0xf0(%esi,%ecx,1)
  dhcp->msg_out->options[dhcp->options_out_len++] = (u8_t)((value & 0x00ff0000UL) >> 16);
  802a68:	0f b7 48 24          	movzwl 0x24(%eax),%ecx
  802a6c:	8d 71 01             	lea    0x1(%ecx),%esi
  802a6f:	66 89 70 24          	mov    %si,0x24(%eax)
  802a73:	0f b7 c9             	movzwl %cx,%ecx
  802a76:	89 d3                	mov    %edx,%ebx
  802a78:	c1 eb 10             	shr    $0x10,%ebx
  802a7b:	8b 70 20             	mov    0x20(%eax),%esi
  802a7e:	88 9c 0e f0 00 00 00 	mov    %bl,0xf0(%esi,%ecx,1)
  dhcp->msg_out->options[dhcp->options_out_len++] = (u8_t)((value & 0x0000ff00UL) >> 8);
  802a85:	8b 58 20             	mov    0x20(%eax),%ebx
  802a88:	0f b7 48 24          	movzwl 0x24(%eax),%ecx
  802a8c:	8d 71 01             	lea    0x1(%ecx),%esi
  802a8f:	66 89 70 24          	mov    %si,0x24(%eax)
  802a93:	0f b7 c9             	movzwl %cx,%ecx
  802a96:	88 b4 0b f0 00 00 00 	mov    %dh,0xf0(%ebx,%ecx,1)
  dhcp->msg_out->options[dhcp->options_out_len++] = (u8_t)((value & 0x000000ffUL));
  802a9d:	8b 58 20             	mov    0x20(%eax),%ebx
  802aa0:	0f b7 48 24          	movzwl 0x24(%eax),%ecx
  802aa4:	8d 71 01             	lea    0x1(%ecx),%esi
  802aa7:	66 89 70 24          	mov    %si,0x24(%eax)
  802aab:	0f b7 c9             	movzwl %cx,%ecx
  802aae:	88 94 0b f0 00 00 00 	mov    %dl,0xf0(%ebx,%ecx,1)
}
  802ab5:	8d 65 f8             	lea    -0x8(%ebp),%esp
  802ab8:	5b                   	pop    %ebx
  802ab9:	5e                   	pop    %esi
  802aba:	5d                   	pop    %ebp
  802abb:	c3                   	ret    
  LWIP_ASSERT("dhcp_option_long: dhcp->options_out_len + 4 <= DHCP_OPTIONS_LEN", dhcp->options_out_len + 4U <= DHCP_OPTIONS_LEN);
  802abc:	83 ec 04             	sub    $0x4,%esp
  802abf:	68 0c 15 81 00       	push   $0x81150c
  802ac4:	68 74 04 00 00       	push   $0x474
  802ac9:	68 02 17 81 00       	push   $0x811702
  802ace:	e8 80 bb 00 00       	call   80e653 <_panic>

00802ad3 <dhcp_create_request>:
{
  802ad3:	55                   	push   %ebp
  802ad4:	89 e5                	mov    %esp,%ebp
  802ad6:	57                   	push   %edi
  802ad7:	56                   	push   %esi
  802ad8:	53                   	push   %ebx
  802ad9:	83 ec 0c             	sub    $0xc,%esp
  LWIP_ERROR("dhcp_create_request: netif != NULL", (netif != NULL), return ERR_ARG;);
  802adc:	85 c0                	test   %eax,%eax
  802ade:	0f 84 d8 00 00 00    	je     802bbc <dhcp_create_request+0xe9>
  802ae4:	89 c6                	mov    %eax,%esi
  dhcp = netif->dhcp;
  802ae6:	8b 58 20             	mov    0x20(%eax),%ebx
  LWIP_ERROR("dhcp_create_request: dhcp != NULL", (dhcp != NULL), return ERR_VAL;);
  802ae9:	85 db                	test   %ebx,%ebx
  802aeb:	0f 84 e2 00 00 00    	je     802bd3 <dhcp_create_request+0x100>
  LWIP_ASSERT("dhcp_create_request: dhcp->p_out == NULL", dhcp->p_out == NULL);
  802af1:	83 7b 1c 00          	cmpl   $0x0,0x1c(%ebx)
  802af5:	0f 85 ef 00 00 00    	jne    802bea <dhcp_create_request+0x117>
  LWIP_ASSERT("dhcp_create_request: dhcp->msg_out == NULL", dhcp->msg_out == NULL);
  802afb:	83 7b 20 00          	cmpl   $0x0,0x20(%ebx)
  802aff:	0f 85 fc 00 00 00    	jne    802c01 <dhcp_create_request+0x12e>
  dhcp->p_out = pbuf_alloc(PBUF_TRANSPORT, sizeof(struct dhcp_msg), PBUF_RAM);
  802b05:	83 ec 04             	sub    $0x4,%esp
  802b08:	6a 00                	push   $0x0
  802b0a:	68 34 01 00 00       	push   $0x134
  802b0f:	6a 00                	push   $0x0
  802b11:	e8 fd 1d 00 00       	call   804913 <pbuf_alloc>
  802b16:	89 43 1c             	mov    %eax,0x1c(%ebx)
  if (dhcp->p_out == NULL) {
  802b19:	83 c4 10             	add    $0x10,%esp
  802b1c:	85 c0                	test   %eax,%eax
  802b1e:	0f 84 9b 01 00 00    	je     802cbf <dhcp_create_request+0x1ec>
  LWIP_ASSERT("dhcp_create_request: check that first pbuf can hold struct dhcp_msg",
  802b24:	66 81 78 0a 33 01    	cmpw   $0x133,0xa(%eax)
  802b2a:	0f 86 e8 00 00 00    	jbe    802c18 <dhcp_create_request+0x145>
  dhcp->xid = xid++;
  802b30:	8b 15 04 40 81 00    	mov    0x814004,%edx
  802b36:	8d 4a 01             	lea    0x1(%edx),%ecx
  802b39:	89 0d 04 40 81 00    	mov    %ecx,0x814004
  802b3f:	89 53 04             	mov    %edx,0x4(%ebx)
  dhcp->msg_out = (struct dhcp_msg *)dhcp->p_out->payload;
  802b42:	8b 40 04             	mov    0x4(%eax),%eax
  802b45:	89 43 20             	mov    %eax,0x20(%ebx)
  dhcp->msg_out->op = DHCP_BOOTREQUEST;
  802b48:	c6 00 01             	movb   $0x1,(%eax)
  dhcp->msg_out->htype = DHCP_HTYPE_ETH;
  802b4b:	8b 43 20             	mov    0x20(%ebx),%eax
  802b4e:	c6 40 01 01          	movb   $0x1,0x1(%eax)
  dhcp->msg_out->hlen = DHCP_HLEN_ETH;
  802b52:	8b 43 20             	mov    0x20(%ebx),%eax
  802b55:	c6 40 02 06          	movb   $0x6,0x2(%eax)
  dhcp->msg_out->hops = 0;
  802b59:	8b 43 20             	mov    0x20(%ebx),%eax
  802b5c:	c6 40 03 00          	movb   $0x0,0x3(%eax)
  dhcp->msg_out->xid = htonl(dhcp->xid);
  802b60:	8b 7b 20             	mov    0x20(%ebx),%edi
  802b63:	83 ec 0c             	sub    $0xc,%esp
  802b66:	ff 73 04             	pushl  0x4(%ebx)
  802b69:	e8 2e 4c 00 00       	call   80779c <htonl>
  802b6e:	89 47 04             	mov    %eax,0x4(%edi)
  dhcp->msg_out->secs = 0;
  802b71:	8b 43 20             	mov    0x20(%ebx),%eax
  802b74:	66 c7 40 08 00 00    	movw   $0x0,0x8(%eax)
  dhcp->msg_out->flags = 0;
  802b7a:	8b 43 20             	mov    0x20(%ebx),%eax
  802b7d:	66 c7 40 0a 00 00    	movw   $0x0,0xa(%eax)
  dhcp->msg_out->ciaddr.addr = netif->ip_addr.addr;
  802b83:	8b 43 20             	mov    0x20(%ebx),%eax
  802b86:	8b 56 04             	mov    0x4(%esi),%edx
  802b89:	89 50 0c             	mov    %edx,0xc(%eax)
  dhcp->msg_out->yiaddr.addr = 0;
  802b8c:	8b 43 20             	mov    0x20(%ebx),%eax
  802b8f:	c7 40 10 00 00 00 00 	movl   $0x0,0x10(%eax)
  dhcp->msg_out->siaddr.addr = 0;
  802b96:	8b 43 20             	mov    0x20(%ebx),%eax
  802b99:	c7 40 14 00 00 00 00 	movl   $0x0,0x14(%eax)
  dhcp->msg_out->giaddr.addr = 0;
  802ba0:	8b 43 20             	mov    0x20(%ebx),%eax
  802ba3:	c7 40 18 00 00 00 00 	movl   $0x0,0x18(%eax)
  802baa:	83 c4 10             	add    $0x10,%esp
  802bad:	b8 00 00 00 00       	mov    $0x0,%eax
    dhcp->msg_out->chaddr[i] = (i < netif->hwaddr_len) ? netif->hwaddr[i] : 0/* pad byte*/;
  802bb2:	bf 00 00 00 00       	mov    $0x0,%edi
  802bb7:	e9 82 00 00 00       	jmp    802c3e <dhcp_create_request+0x16b>
  LWIP_ERROR("dhcp_create_request: netif != NULL", (netif != NULL), return ERR_ARG;);
  802bbc:	83 ec 04             	sub    $0x4,%esp
  802bbf:	68 4c 15 81 00       	push   $0x81154c
  802bc4:	68 2d 05 00 00       	push   $0x52d
  802bc9:	68 02 17 81 00       	push   $0x811702
  802bce:	e8 80 ba 00 00       	call   80e653 <_panic>
  LWIP_ERROR("dhcp_create_request: dhcp != NULL", (dhcp != NULL), return ERR_VAL;);
  802bd3:	83 ec 04             	sub    $0x4,%esp
  802bd6:	68 70 15 81 00       	push   $0x811570
  802bdb:	68 2f 05 00 00       	push   $0x52f
  802be0:	68 02 17 81 00       	push   $0x811702
  802be5:	e8 69 ba 00 00       	call   80e653 <_panic>
  LWIP_ASSERT("dhcp_create_request: dhcp->p_out == NULL", dhcp->p_out == NULL);
  802bea:	83 ec 04             	sub    $0x4,%esp
  802bed:	68 94 15 81 00       	push   $0x811594
  802bf2:	68 30 05 00 00       	push   $0x530
  802bf7:	68 02 17 81 00       	push   $0x811702
  802bfc:	e8 52 ba 00 00       	call   80e653 <_panic>
  LWIP_ASSERT("dhcp_create_request: dhcp->msg_out == NULL", dhcp->msg_out == NULL);
  802c01:	83 ec 04             	sub    $0x4,%esp
  802c04:	68 c0 15 81 00       	push   $0x8115c0
  802c09:	68 31 05 00 00       	push   $0x531
  802c0e:	68 02 17 81 00       	push   $0x811702
  802c13:	e8 3b ba 00 00       	call   80e653 <_panic>
  LWIP_ASSERT("dhcp_create_request: check that first pbuf can hold struct dhcp_msg",
  802c18:	83 ec 04             	sub    $0x4,%esp
  802c1b:	68 ec 15 81 00       	push   $0x8115ec
  802c20:	68 38 05 00 00       	push   $0x538
  802c25:	68 02 17 81 00       	push   $0x811702
  802c2a:	e8 24 ba 00 00       	call   80e653 <_panic>
    dhcp->msg_out->chaddr[i] = (i < netif->hwaddr_len) ? netif->hwaddr[i] : 0/* pad byte*/;
  802c2f:	8b 4b 20             	mov    0x20(%ebx),%ecx
  802c32:	88 54 01 1c          	mov    %dl,0x1c(%ecx,%eax,1)
  802c36:	83 c0 01             	add    $0x1,%eax
  for (i = 0; i < DHCP_CHADDR_LEN; i++) {
  802c39:	83 f8 10             	cmp    $0x10,%eax
  802c3c:	74 12                	je     802c50 <dhcp_create_request+0x17d>
    dhcp->msg_out->chaddr[i] = (i < netif->hwaddr_len) ? netif->hwaddr[i] : 0/* pad byte*/;
  802c3e:	0f b6 4e 24          	movzbl 0x24(%esi),%ecx
  802c42:	89 fa                	mov    %edi,%edx
  802c44:	66 39 c1             	cmp    %ax,%cx
  802c47:	76 e6                	jbe    802c2f <dhcp_create_request+0x15c>
  802c49:	0f b6 54 06 25       	movzbl 0x25(%esi,%eax,1),%edx
  802c4e:	eb df                	jmp    802c2f <dhcp_create_request+0x15c>
  802c50:	b8 00 00 00 00       	mov    $0x0,%eax
    dhcp->msg_out->sname[i] = 0;
  802c55:	8b 53 20             	mov    0x20(%ebx),%edx
  802c58:	c6 44 02 2c 00       	movb   $0x0,0x2c(%edx,%eax,1)
  802c5d:	83 c0 01             	add    $0x1,%eax
  for (i = 0; i < DHCP_SNAME_LEN; i++) {
  802c60:	83 f8 40             	cmp    $0x40,%eax
  802c63:	75 f0                	jne    802c55 <dhcp_create_request+0x182>
  802c65:	b8 00 00 00 00       	mov    $0x0,%eax
    dhcp->msg_out->file[i] = 0;
  802c6a:	8b 53 20             	mov    0x20(%ebx),%edx
  802c6d:	c6 44 02 6c 00       	movb   $0x0,0x6c(%edx,%eax,1)
  802c72:	83 c0 01             	add    $0x1,%eax
  for (i = 0; i < DHCP_FILE_LEN; i++) {
  802c75:	3d 80 00 00 00       	cmp    $0x80,%eax
  802c7a:	75 ee                	jne    802c6a <dhcp_create_request+0x197>
  dhcp->msg_out->cookie = htonl(0x63825363UL);
  802c7c:	8b 73 20             	mov    0x20(%ebx),%esi
  802c7f:	83 ec 0c             	sub    $0xc,%esp
  802c82:	68 63 53 82 63       	push   $0x63825363
  802c87:	e8 10 4b 00 00       	call   80779c <htonl>
  802c8c:	89 86 ec 00 00 00    	mov    %eax,0xec(%esi)
  dhcp->options_out_len = 0;
  802c92:	66 c7 43 24 00 00    	movw   $0x0,0x24(%ebx)
  802c98:	83 c4 10             	add    $0x10,%esp
  802c9b:	b8 00 00 00 00       	mov    $0x0,%eax
    dhcp->msg_out->options[i] = (u8_t)i; /* for debugging only, no matter if truncated */
  802ca0:	8b 53 20             	mov    0x20(%ebx),%edx
  802ca3:	88 84 02 f0 00 00 00 	mov    %al,0xf0(%edx,%eax,1)
  802caa:	83 c0 01             	add    $0x1,%eax
  for (i = 0; i < DHCP_OPTIONS_LEN; i++) {
  802cad:	83 f8 44             	cmp    $0x44,%eax
  802cb0:	75 ee                	jne    802ca0 <dhcp_create_request+0x1cd>
  return ERR_OK;
  802cb2:	b8 00 00 00 00       	mov    $0x0,%eax
}
  802cb7:	8d 65 f4             	lea    -0xc(%ebp),%esp
  802cba:	5b                   	pop    %ebx
  802cbb:	5e                   	pop    %esi
  802cbc:	5f                   	pop    %edi
  802cbd:	5d                   	pop    %ebp
  802cbe:	c3                   	ret    
    return ERR_MEM;
  802cbf:	b8 ff ff ff ff       	mov    $0xffffffff,%eax
  802cc4:	eb f1                	jmp    802cb7 <dhcp_create_request+0x1e4>

00802cc6 <dhcp_delete_request>:
{
  802cc6:	55                   	push   %ebp
  802cc7:	89 e5                	mov    %esp,%ebp
  802cc9:	53                   	push   %ebx
  802cca:	83 ec 04             	sub    $0x4,%esp
  LWIP_ERROR("dhcp_delete_request: netif != NULL", (netif != NULL), return;);
  802ccd:	85 c0                	test   %eax,%eax
  802ccf:	74 33                	je     802d04 <dhcp_delete_request+0x3e>
  dhcp = netif->dhcp;
  802cd1:	8b 58 20             	mov    0x20(%eax),%ebx
  LWIP_ERROR("dhcp_delete_request: dhcp != NULL", (dhcp != NULL), return;);
  802cd4:	85 db                	test   %ebx,%ebx
  802cd6:	74 43                	je     802d1b <dhcp_delete_request+0x55>
  LWIP_ASSERT("dhcp_delete_request: dhcp->p_out != NULL", dhcp->p_out != NULL);
  802cd8:	8b 43 1c             	mov    0x1c(%ebx),%eax
  802cdb:	85 c0                	test   %eax,%eax
  802cdd:	74 53                	je     802d32 <dhcp_delete_request+0x6c>
  LWIP_ASSERT("dhcp_delete_request: dhcp->msg_out != NULL", dhcp->msg_out != NULL);
  802cdf:	83 7b 20 00          	cmpl   $0x0,0x20(%ebx)
  802ce3:	74 64                	je     802d49 <dhcp_delete_request+0x83>
    pbuf_free(dhcp->p_out);
  802ce5:	83 ec 0c             	sub    $0xc,%esp
  802ce8:	50                   	push   %eax
  802ce9:	e8 5f 1b 00 00       	call   80484d <pbuf_free>
  dhcp->p_out = NULL;
  802cee:	c7 43 1c 00 00 00 00 	movl   $0x0,0x1c(%ebx)
  dhcp->msg_out = NULL;
  802cf5:	c7 43 20 00 00 00 00 	movl   $0x0,0x20(%ebx)
}
  802cfc:	83 c4 10             	add    $0x10,%esp
  802cff:	8b 5d fc             	mov    -0x4(%ebp),%ebx
  802d02:	c9                   	leave  
  802d03:	c3                   	ret    
  LWIP_ERROR("dhcp_delete_request: netif != NULL", (netif != NULL), return;);
  802d04:	83 ec 04             	sub    $0x4,%esp
  802d07:	68 30 16 81 00       	push   $0x811630
  802d0c:	68 69 05 00 00       	push   $0x569
  802d11:	68 02 17 81 00       	push   $0x811702
  802d16:	e8 38 b9 00 00       	call   80e653 <_panic>
  LWIP_ERROR("dhcp_delete_request: dhcp != NULL", (dhcp != NULL), return;);
  802d1b:	83 ec 04             	sub    $0x4,%esp
  802d1e:	68 54 16 81 00       	push   $0x811654
  802d23:	68 6b 05 00 00       	push   $0x56b
  802d28:	68 02 17 81 00       	push   $0x811702
  802d2d:	e8 21 b9 00 00       	call   80e653 <_panic>
  LWIP_ASSERT("dhcp_delete_request: dhcp->p_out != NULL", dhcp->p_out != NULL);
  802d32:	83 ec 04             	sub    $0x4,%esp
  802d35:	68 78 16 81 00       	push   $0x811678
  802d3a:	68 6c 05 00 00       	push   $0x56c
  802d3f:	68 02 17 81 00       	push   $0x811702
  802d44:	e8 0a b9 00 00       	call   80e653 <_panic>
  LWIP_ASSERT("dhcp_delete_request: dhcp->msg_out != NULL", dhcp->msg_out != NULL);
  802d49:	83 ec 04             	sub    $0x4,%esp
  802d4c:	68 a4 16 81 00       	push   $0x8116a4
  802d51:	68 6d 05 00 00       	push   $0x56d
  802d56:	68 02 17 81 00       	push   $0x811702
  802d5b:	e8 f3 b8 00 00       	call   80e653 <_panic>

00802d60 <dhcp_rebind>:
{
  802d60:	55                   	push   %ebp
  802d61:	89 e5                	mov    %esp,%ebp
  802d63:	57                   	push   %edi
  802d64:	56                   	push   %esi
  802d65:	53                   	push   %ebx
  802d66:	83 ec 0c             	sub    $0xc,%esp
  802d69:	89 c7                	mov    %eax,%edi
  struct dhcp *dhcp = netif->dhcp;
  802d6b:	8b 58 20             	mov    0x20(%eax),%ebx
  dhcp_set_state(dhcp, DHCP_REBINDING);
  802d6e:	ba 04 00 00 00       	mov    $0x4,%edx
  802d73:	89 d8                	mov    %ebx,%eax
  802d75:	e8 c6 f9 ff ff       	call   802740 <dhcp_set_state>
  result = dhcp_create_request(netif);
  802d7a:	89 f8                	mov    %edi,%eax
  802d7c:	e8 52 fd ff ff       	call   802ad3 <dhcp_create_request>
  802d81:	89 c6                	mov    %eax,%esi
  if (result == ERR_OK) {
  802d83:	84 c0                	test   %al,%al
  802d85:	74 3e                	je     802dc5 <dhcp_rebind+0x65>
  dhcp->tries++;
  802d87:	0f b6 43 01          	movzbl 0x1(%ebx),%eax
  802d8b:	83 c0 01             	add    $0x1,%eax
  802d8e:	88 43 01             	mov    %al,0x1(%ebx)
  msecs = dhcp->tries < 10 ? dhcp->tries * 1000 : 10 * 1000;
  802d91:	ba 10 27 00 00       	mov    $0x2710,%edx
  802d96:	3c 09                	cmp    $0x9,%al
  802d98:	77 08                	ja     802da2 <dhcp_rebind+0x42>
  802d9a:	0f b6 d0             	movzbl %al,%edx
  802d9d:	66 69 d2 e8 03       	imul   $0x3e8,%dx,%dx
  dhcp->request_timeout = (msecs + DHCP_FINE_TIMER_MSECS - 1) / DHCP_FINE_TIMER_MSECS;
  802da2:	0f b7 d2             	movzwl %dx,%edx
  802da5:	81 c2 f3 01 00 00    	add    $0x1f3,%edx
  802dab:	b9 d3 4d 62 10       	mov    $0x10624dd3,%ecx
  802db0:	89 d0                	mov    %edx,%eax
  802db2:	f7 e9                	imul   %ecx
  802db4:	c1 fa 05             	sar    $0x5,%edx
  802db7:	66 89 53 26          	mov    %dx,0x26(%ebx)
}
  802dbb:	89 f0                	mov    %esi,%eax
  802dbd:	8d 65 f4             	lea    -0xc(%ebp),%esp
  802dc0:	5b                   	pop    %ebx
  802dc1:	5e                   	pop    %esi
  802dc2:	5f                   	pop    %edi
  802dc3:	5d                   	pop    %ebp
  802dc4:	c3                   	ret    
    dhcp_option(dhcp, DHCP_OPTION_MESSAGE_TYPE, DHCP_OPTION_MESSAGE_TYPE_LEN);
  802dc5:	b9 01 00 00 00       	mov    $0x1,%ecx
  802dca:	ba 35 00 00 00       	mov    $0x35,%edx
  802dcf:	89 d8                	mov    %ebx,%eax
  802dd1:	e8 eb fa ff ff       	call   8028c1 <dhcp_option>
    dhcp_option_byte(dhcp, DHCP_REQUEST);
  802dd6:	ba 03 00 00 00       	mov    $0x3,%edx
  802ddb:	89 d8                	mov    %ebx,%eax
  802ddd:	e8 9e fa ff ff       	call   802880 <dhcp_option_byte>
    dhcp_option(dhcp, DHCP_OPTION_MAX_MSG_SIZE, DHCP_OPTION_MAX_MSG_SIZE_LEN);
  802de2:	b9 02 00 00 00       	mov    $0x2,%ecx
  802de7:	ba 39 00 00 00       	mov    $0x39,%edx
  802dec:	89 d8                	mov    %ebx,%eax
  802dee:	e8 ce fa ff ff       	call   8028c1 <dhcp_option>
    dhcp_option_short(dhcp, 576);
  802df3:	ba 40 02 00 00       	mov    $0x240,%edx
  802df8:	89 d8                	mov    %ebx,%eax
  802dfa:	e8 29 fb ff ff       	call   802928 <dhcp_option_short>
    dhcp_option_trailer(dhcp);
  802dff:	89 d8                	mov    %ebx,%eax
  802e01:	e8 80 fb ff ff       	call   802986 <dhcp_option_trailer>
    pbuf_realloc(dhcp->p_out, sizeof(struct dhcp_msg) - DHCP_OPTIONS_LEN + dhcp->options_out_len);
  802e06:	83 ec 08             	sub    $0x8,%esp
  802e09:	0f b7 43 24          	movzwl 0x24(%ebx),%eax
  802e0d:	66 05 f0 00          	add    $0xf0,%ax
  802e11:	0f b7 c0             	movzwl %ax,%eax
  802e14:	50                   	push   %eax
  802e15:	ff 73 1c             	pushl  0x1c(%ebx)
  802e18:	e8 61 1d 00 00       	call   804b7e <pbuf_realloc>
    udp_connect(dhcp->pcb, IP_ADDR_ANY, DHCP_SERVER_PORT);
  802e1d:	83 c4 0c             	add    $0xc,%esp
  802e20:	6a 43                	push   $0x43
  802e22:	68 c4 1f 81 00       	push   $0x811fc4
  802e27:	ff 73 08             	pushl  0x8(%ebx)
  802e2a:	e8 7f 61 00 00       	call   808fae <udp_connect>
    udp_sendto_if(dhcp->pcb, dhcp->p_out, IP_ADDR_BROADCAST, DHCP_SERVER_PORT, netif);
  802e2f:	89 3c 24             	mov    %edi,(%esp)
  802e32:	6a 43                	push   $0x43
  802e34:	68 c0 1f 81 00       	push   $0x811fc0
  802e39:	ff 73 1c             	pushl  0x1c(%ebx)
  802e3c:	ff 73 08             	pushl  0x8(%ebx)
  802e3f:	e8 76 5f 00 00       	call   808dba <udp_sendto_if>
    dhcp_delete_request(netif);
  802e44:	83 c4 20             	add    $0x20,%esp
  802e47:	89 f8                	mov    %edi,%eax
  802e49:	e8 78 fe ff ff       	call   802cc6 <dhcp_delete_request>
  802e4e:	e9 34 ff ff ff       	jmp    802d87 <dhcp_rebind+0x27>

00802e53 <dhcp_discover>:
{
  802e53:	55                   	push   %ebp
  802e54:	89 e5                	mov    %esp,%ebp
  802e56:	57                   	push   %edi
  802e57:	56                   	push   %esi
  802e58:	53                   	push   %ebx
  802e59:	83 ec 0c             	sub    $0xc,%esp
  802e5c:	89 c7                	mov    %eax,%edi
  struct dhcp *dhcp = netif->dhcp;
  802e5e:	8b 58 20             	mov    0x20(%eax),%ebx
  ip_addr_set(&dhcp->offered_ip_addr, IP_ADDR_ANY);
  802e61:	a1 c4 1f 81 00       	mov    0x811fc4,%eax
  802e66:	89 43 30             	mov    %eax,0x30(%ebx)
  result = dhcp_create_request(netif);
  802e69:	89 f8                	mov    %edi,%eax
  802e6b:	e8 63 fc ff ff       	call   802ad3 <dhcp_create_request>
  802e70:	89 c6                	mov    %eax,%esi
  if (result == ERR_OK) {
  802e72:	84 c0                	test   %al,%al
  802e74:	74 41                	je     802eb7 <dhcp_discover+0x64>
  dhcp->tries++;
  802e76:	0f b6 43 01          	movzbl 0x1(%ebx),%eax
  802e7a:	83 c0 01             	add    $0x1,%eax
  802e7d:	88 43 01             	mov    %al,0x1(%ebx)
  msecs = dhcp->tries < 4 ? (dhcp->tries + 1) * 1000 : 10 * 1000;
  802e80:	ba 10 27 00 00       	mov    $0x2710,%edx
  802e85:	3c 03                	cmp    $0x3,%al
  802e87:	77 0b                	ja     802e94 <dhcp_discover+0x41>
  802e89:	0f b6 d0             	movzbl %al,%edx
  802e8c:	83 c2 01             	add    $0x1,%edx
  802e8f:	66 69 d2 e8 03       	imul   $0x3e8,%dx,%dx
  dhcp->request_timeout = (msecs + DHCP_FINE_TIMER_MSECS - 1) / DHCP_FINE_TIMER_MSECS;
  802e94:	0f b7 d2             	movzwl %dx,%edx
  802e97:	81 c2 f3 01 00 00    	add    $0x1f3,%edx
  802e9d:	b9 d3 4d 62 10       	mov    $0x10624dd3,%ecx
  802ea2:	89 d0                	mov    %edx,%eax
  802ea4:	f7 e9                	imul   %ecx
  802ea6:	c1 fa 05             	sar    $0x5,%edx
  802ea9:	66 89 53 26          	mov    %dx,0x26(%ebx)
}
  802ead:	89 f0                	mov    %esi,%eax
  802eaf:	8d 65 f4             	lea    -0xc(%ebp),%esp
  802eb2:	5b                   	pop    %ebx
  802eb3:	5e                   	pop    %esi
  802eb4:	5f                   	pop    %edi
  802eb5:	5d                   	pop    %ebp
  802eb6:	c3                   	ret    
    dhcp_option(dhcp, DHCP_OPTION_MESSAGE_TYPE, DHCP_OPTION_MESSAGE_TYPE_LEN);
  802eb7:	b9 01 00 00 00       	mov    $0x1,%ecx
  802ebc:	ba 35 00 00 00       	mov    $0x35,%edx
  802ec1:	89 d8                	mov    %ebx,%eax
  802ec3:	e8 f9 f9 ff ff       	call   8028c1 <dhcp_option>
    dhcp_option_byte(dhcp, DHCP_DISCOVER);
  802ec8:	ba 01 00 00 00       	mov    $0x1,%edx
  802ecd:	89 d8                	mov    %ebx,%eax
  802ecf:	e8 ac f9 ff ff       	call   802880 <dhcp_option_byte>
    dhcp_option(dhcp, DHCP_OPTION_MAX_MSG_SIZE, DHCP_OPTION_MAX_MSG_SIZE_LEN);
  802ed4:	b9 02 00 00 00       	mov    $0x2,%ecx
  802ed9:	ba 39 00 00 00       	mov    $0x39,%edx
  802ede:	89 d8                	mov    %ebx,%eax
  802ee0:	e8 dc f9 ff ff       	call   8028c1 <dhcp_option>
    dhcp_option_short(dhcp, 576);
  802ee5:	ba 40 02 00 00       	mov    $0x240,%edx
  802eea:	89 d8                	mov    %ebx,%eax
  802eec:	e8 37 fa ff ff       	call   802928 <dhcp_option_short>
    dhcp_option(dhcp, DHCP_OPTION_PARAMETER_REQUEST_LIST, 4/*num options*/);
  802ef1:	b9 04 00 00 00       	mov    $0x4,%ecx
  802ef6:	ba 37 00 00 00       	mov    $0x37,%edx
  802efb:	89 d8                	mov    %ebx,%eax
  802efd:	e8 bf f9 ff ff       	call   8028c1 <dhcp_option>
    dhcp_option_byte(dhcp, DHCP_OPTION_SUBNET_MASK);
  802f02:	ba 01 00 00 00       	mov    $0x1,%edx
  802f07:	89 d8                	mov    %ebx,%eax
  802f09:	e8 72 f9 ff ff       	call   802880 <dhcp_option_byte>
    dhcp_option_byte(dhcp, DHCP_OPTION_ROUTER);
  802f0e:	ba 03 00 00 00       	mov    $0x3,%edx
  802f13:	89 d8                	mov    %ebx,%eax
  802f15:	e8 66 f9 ff ff       	call   802880 <dhcp_option_byte>
    dhcp_option_byte(dhcp, DHCP_OPTION_BROADCAST);
  802f1a:	ba 1c 00 00 00       	mov    $0x1c,%edx
  802f1f:	89 d8                	mov    %ebx,%eax
  802f21:	e8 5a f9 ff ff       	call   802880 <dhcp_option_byte>
    dhcp_option_byte(dhcp, DHCP_OPTION_DNS_SERVER);
  802f26:	ba 06 00 00 00       	mov    $0x6,%edx
  802f2b:	89 d8                	mov    %ebx,%eax
  802f2d:	e8 4e f9 ff ff       	call   802880 <dhcp_option_byte>
    dhcp_option_trailer(dhcp);
  802f32:	89 d8                	mov    %ebx,%eax
  802f34:	e8 4d fa ff ff       	call   802986 <dhcp_option_trailer>
    pbuf_realloc(dhcp->p_out, sizeof(struct dhcp_msg) - DHCP_OPTIONS_LEN + dhcp->options_out_len);
  802f39:	83 ec 08             	sub    $0x8,%esp
  802f3c:	0f b7 43 24          	movzwl 0x24(%ebx),%eax
  802f40:	66 05 f0 00          	add    $0xf0,%ax
  802f44:	0f b7 c0             	movzwl %ax,%eax
  802f47:	50                   	push   %eax
  802f48:	ff 73 1c             	pushl  0x1c(%ebx)
  802f4b:	e8 2e 1c 00 00       	call   804b7e <pbuf_realloc>
    udp_connect(dhcp->pcb, IP_ADDR_ANY, DHCP_SERVER_PORT);
  802f50:	83 c4 0c             	add    $0xc,%esp
  802f53:	6a 43                	push   $0x43
  802f55:	68 c4 1f 81 00       	push   $0x811fc4
  802f5a:	ff 73 08             	pushl  0x8(%ebx)
  802f5d:	e8 4c 60 00 00       	call   808fae <udp_connect>
    udp_sendto_if(dhcp->pcb, dhcp->p_out, IP_ADDR_BROADCAST, DHCP_SERVER_PORT, netif);
  802f62:	89 3c 24             	mov    %edi,(%esp)
  802f65:	6a 43                	push   $0x43
  802f67:	68 c0 1f 81 00       	push   $0x811fc0
  802f6c:	ff 73 1c             	pushl  0x1c(%ebx)
  802f6f:	ff 73 08             	pushl  0x8(%ebx)
  802f72:	e8 43 5e 00 00       	call   808dba <udp_sendto_if>
    dhcp_delete_request(netif);
  802f77:	83 c4 20             	add    $0x20,%esp
  802f7a:	89 f8                	mov    %edi,%eax
  802f7c:	e8 45 fd ff ff       	call   802cc6 <dhcp_delete_request>
    dhcp_set_state(dhcp, DHCP_SELECTING);
  802f81:	ba 06 00 00 00       	mov    $0x6,%edx
  802f86:	89 d8                	mov    %ebx,%eax
  802f88:	e8 b3 f7 ff ff       	call   802740 <dhcp_set_state>
  802f8d:	e9 e4 fe ff ff       	jmp    802e76 <dhcp_discover+0x23>

00802f92 <dhcp_select>:
{
  802f92:	55                   	push   %ebp
  802f93:	89 e5                	mov    %esp,%ebp
  802f95:	57                   	push   %edi
  802f96:	56                   	push   %esi
  802f97:	53                   	push   %ebx
  802f98:	83 ec 0c             	sub    $0xc,%esp
  802f9b:	89 c7                	mov    %eax,%edi
  struct dhcp *dhcp = netif->dhcp;
  802f9d:	8b 58 20             	mov    0x20(%eax),%ebx
  result = dhcp_create_request(netif);
  802fa0:	e8 2e fb ff ff       	call   802ad3 <dhcp_create_request>
  802fa5:	89 c6                	mov    %eax,%esi
  if (result == ERR_OK) {
  802fa7:	84 c0                	test   %al,%al
  802fa9:	74 3e                	je     802fe9 <dhcp_select+0x57>
  dhcp->tries++;
  802fab:	0f b6 43 01          	movzbl 0x1(%ebx),%eax
  802faf:	83 c0 01             	add    $0x1,%eax
  802fb2:	88 43 01             	mov    %al,0x1(%ebx)
  msecs = dhcp->tries < 4 ? dhcp->tries * 1000 : 4 * 1000;
  802fb5:	ba a0 0f 00 00       	mov    $0xfa0,%edx
  802fba:	3c 03                	cmp    $0x3,%al
  802fbc:	77 08                	ja     802fc6 <dhcp_select+0x34>
  802fbe:	0f b6 d0             	movzbl %al,%edx
  802fc1:	66 69 d2 e8 03       	imul   $0x3e8,%dx,%dx
  dhcp->request_timeout = (msecs + DHCP_FINE_TIMER_MSECS - 1) / DHCP_FINE_TIMER_MSECS;
  802fc6:	0f b7 d2             	movzwl %dx,%edx
  802fc9:	81 c2 f3 01 00 00    	add    $0x1f3,%edx
